

Microchip MPLAB XC8 Assembler V2.31 build 20201012212115 
                                                                                               Wed Oct 06 22:06:26 2021

Microchip MPLAB XC8 C Compiler v2.31 (Free license) build 20201012212115 Og1 
     1                           	processor	18F47K42
     2                           	fnconf	rparam,??,?,0
     3                           	pagewidth 120
     4                           	opt	flic
     5                           	psect	nvBANK0,global,class=BANK0,space=1,delta=1,lowdata,noexec
     6                           	psect	smallconst,global,reloc=2,class=SMALLCONST,delta=1,noexec
     7                           	psect	cinit,global,reloc=2,class=CODE,delta=1
     8                           	psect	bssCOMRAM,global,class=COMRAM,space=1,delta=1,lowdata,noexec
     9                           	psect	bssBANK0,global,class=BANK0,space=1,delta=1,lowdata,noexec
    10                           	psect	cstackBANK0,global,class=BANK0,space=1,delta=1,lowdata,noexec
    11                           	psect	cstackCOMRAM,global,class=COMRAM,space=1,delta=1,lowdata,noexec
    12                           	psect	text0,global,reloc=2,class=CODE,delta=1
    13                           	psect	text1,global,reloc=2,class=CODE,delta=1,group=3
    14                           	psect	text2,global,reloc=2,class=CODE,delta=1,group=1
    15                           	psect	text3,global,reloc=2,class=CODE,delta=1,group=1
    16                           	psect	text4,global,reloc=2,class=CODE,delta=1,group=1
    17                           	psect	text5,global,reloc=2,class=CODE,delta=1,group=1
    18                           	psect	text6,global,reloc=2,class=CODE,delta=1,group=3
    19                           	psect	text7,global,reloc=2,class=CODE,delta=1,group=3
    20                           	psect	text8,global,reloc=2,class=CODE,delta=1,group=3
    21                           	psect	text9,global,reloc=2,class=CODE,delta=1
    22                           	psect	text10,global,reloc=2,class=CODE,delta=1
    23                           	psect	text11,global,reloc=2,class=CODE,delta=1,group=3
    24                           	psect	text12,global,reloc=2,class=CODE,delta=1,group=2
    25                           	psect	text13,global,reloc=2,class=CODE,delta=1,group=2
    26                           	psect	text14,global,reloc=2,class=CODE,delta=1
    27                           	psect	text15,global,reloc=2,class=CODE,delta=1
    28                           	psect	text16,global,reloc=2,class=CODE,delta=1
    29                           	psect	text17,global,reloc=2,class=CODE,delta=1
    30                           	psect	text18,global,reloc=2,class=CODE,delta=1
    31                           	psect	text19,global,reloc=2,class=CODE,delta=1
    32                           	psect	text20,global,reloc=2,class=CODE,delta=1
    33                           	psect	text21,global,reloc=2,class=CODE,delta=1
    34                           	psect	text22,global,reloc=2,class=CODE,delta=1
    35                           	psect	text23,global,reloc=2,class=CODE,delta=1
    36                           	psect	text24,global,reloc=2,class=CODE,delta=1
    37                           	psect	text25,global,reloc=2,class=CODE,delta=1
    38                           	psect	text26,global,reloc=2,class=CODE,delta=1
    39                           	psect	text27,global,reloc=2,class=CODE,delta=1
    40                           	psect	text28,global,reloc=2,class=CODE,delta=1
    41                           	psect	text29,global,reloc=2,class=CODE,delta=1
    42                           	psect	text30,global,reloc=2,class=CODE,delta=1
    43                           	psect	text31,global,reloc=2,class=CODE,delta=1
    44                           	psect	text32,global,reloc=2,class=CODE,delta=1
    45                           	psect	ivt0x8,global,reloc=2,class=CODE,delta=1,noexec,keep,optim=
    46                           	psect	intsave_regs,global,class=BIGRAM,space=1,delta=1,noexec
    47                           	psect	text33,global,reloc=2,class=CODE,delta=1
    48                           	psect	rparam,global,class=COMRAM,space=1,delta=1,noexec
    49                           	psect	idloc,global,abs,ovrld,class=IDLOC,space=5,delta=1,noexec
    50                           	psect	config,global,abs,ovrld,class=CONFIG,space=4,delta=1,noexec
    51  0000                     
    52                           ; Version 2.20
    53                           ; Generated 05/05/2020 GMT
    54                           ; 
    55                           ; Copyright © 2020, Microchip Technology Inc. and its subsidiaries ("Microchip")
    56                           ; All rights reserved.
    57                           ; 
    58                           ; This software is developed by Microchip Technology Inc. and its subsidiaries ("Microch
      +                          ip").
    59                           ; 
    60                           ; Redistribution and use in source and binary forms, with or without modification, are
    61                           ; permitted provided that the following conditions are met:
    62                           ; 
    63                           ;     1. Redistributions of source code must retain the above copyright notice, this lis
      +                          t of
    64                           ;        conditions and the following disclaimer.
    65                           ; 
    66                           ;     2. Redistributions in binary form must reproduce the above copyright notice, this 
      +                          list
    67                           ;        of conditions and the following disclaimer in the documentation and/or other
    68                           ;        materials provided with the distribution.
    69                           ; 
    70                           ;     3. Microchip's name may not be used to endorse or promote products derived from th
      +                          is
    71                           ;        software without specific prior written permission.
    72                           ; 
    73                           ; THIS SOFTWARE IS PROVIDED BY MICROCHIP "AS IS" AND ANY EXPRESS OR IMPLIED WARRANTIES,
    74                           ; INCLUDING, BUT NOT LIMITED TO, THE IMPLIED WARRANTIES OF MERCHANTABILITY AND FITNESS F
      +                          OR
    75                           ; PURPOSE ARE DISCLAIMED.  IN NO EVENT SHALL MICROCHIP BE LIABLE FOR ANY DIRECT, INDIREC
      +                          T,
    76                           ; INCIDENTAL, SPECIAL, EXEMPLARY, OR CONSEQUENTIAL DAMAGES (INCLUDING BUT NOT LIMITED TO
    77                           ; PROCUREMENT OF SUBSTITUTE GOODS OR SERVICES; LOSS OF USE, DATA OR PROFITS; OR BUSINESS
    78                           ; INTERRUPTION) HOWSOEVER CAUSED AND ON ANY THEORY OF LIABILITY, WHETHER IN CONTRACT, ST
      +                          RICT
    79                           ; LIABILITY, OR TORT (INCLUDING NEGLIGENCE OR OTHERWISE) ARISING IN ANY WAY OUT OF THE U
      +                          SE OF
    80                           ; THIS SOFTWARE, EVEN IF ADVISED OF THE POSSIBILITY OF SUCH DAMAGE.
    81                           ; 
    82                           ; 
    83                           ; Code-generator required, PIC18F47K42 Definitions
    84                           ; 
    85                           ; SFR Addresses
    86  0000                     
    87 ;; Function _UART1_DefaultFramingErrorHandler is unused but had its address taken
    88  0000                     
    89 ;; Function _UART1_DefaultOverrunErrorHandler is unused but had its address taken
    90  0000                     
    91 ;; Function _UART1_DefaultErrorHandler is unused but had its address taken
    92  0000                     
    93                           	psect	nvBANK0
    94  000088                     __pnvBANK0:
    95                           	callstack 0
    96  000088                     _TMR0_InterruptHandler:
    97                           	callstack 0
    98  000088                     	ds	3
    99  00008B                     _UART1_ErrorHandler:
   100                           	callstack 0
   101  00008B                     	ds	3
   102  00008E                     _UART1_OverrunErrorHandler:
   103                           	callstack 0
   104  00008E                     	ds	3
   105  000091                     _UART1_FramingErrorHandler:
   106                           	callstack 0
   107  000091                     	ds	3
   108  0000                     _PIE3bits	set	14739
   109  0000                     _PMD7	set	14791
   110  0000                     _PMD6	set	14790
   111  0000                     _PMD5	set	14789
   112  0000                     _PMD4	set	14788
   113  0000                     _PMD3	set	14787
   114  0000                     _PMD2	set	14786
   115  0000                     _PMD1	set	14785
   116  0000                     _PMD0	set	14784
   117  0000                     _OSCTUNE	set	14814
   118  0000                     _OSCFRQ	set	14815
   119  0000                     _OSCEN	set	14813
   120  0000                     _OSCCON3	set	14811
   121  0000                     _OSCCON1	set	14809
   122  0000                     _PIR3bits	set	14755
   123  0000                     _U1RXPPS	set	15077
   124  0000                     _RC6PPS	set	14870
   125  0000                     _INLVLE	set	14980
   126  0000                     _INLVLD	set	14964
   127  0000                     _INLVLC	set	14948
   128  0000                     _INLVLB	set	14932
   129  0000                     _INLVLA	set	14916
   130  0000                     _SLRCONE	set	14979
   131  0000                     _SLRCOND	set	14963
   132  0000                     _SLRCONC	set	14947
   133  0000                     _SLRCONB	set	14931
   134  0000                     _SLRCONA	set	14915
   135  0000                     _ODCOND	set	14962
   136  0000                     _ODCONC	set	14946
   137  0000                     _ODCONB	set	14930
   138  0000                     _ODCONA	set	14914
   139  0000                     _ODCONE	set	14978
   140  0000                     _RD1I2C	set	14971
   141  0000                     _RD0I2C	set	14970
   142  0000                     _RC4I2C	set	14955
   143  0000                     _RC3I2C	set	14954
   144  0000                     _RB2I2C	set	14939
   145  0000                     _RB1I2C	set	14938
   146  0000                     _WPUC	set	14945
   147  0000                     _WPUA	set	14913
   148  0000                     _WPUB	set	14929
   149  0000                     _WPUE	set	14977
   150  0000                     _WPUD	set	14961
   151  0000                     _ANSELA	set	14912
   152  0000                     _ANSELE	set	14976
   153  0000                     _ANSELB	set	14928
   154  0000                     _ANSELC	set	14944
   155  0000                     _ANSELD	set	14960
   156  0000                     _U1TXB	set	15850
   157  0000                     _U1RXB	set	15848
   158  0000                     _U1ERRIRbits	set	15865
   159  0000                     _U1CON0bits	set	15858
   160  0000                     _U1ERRIE	set	15866
   161  0000                     _U1ERRIR	set	15865
   162  0000                     _U1UIR	set	15864
   163  0000                     _U1FIFO	set	15863
   164  0000                     _U1BRGH	set	15862
   165  0000                     _U1BRGL	set	15861
   166  0000                     _U1CON2	set	15860
   167  0000                     _U1CON1	set	15859
   168  0000                     _U1CON0	set	15858
   169  0000                     _U1P3H	set	15857
   170  0000                     _U1P3L	set	15856
   171  0000                     _U1P2H	set	15855
   172  0000                     _U1P2L	set	15854
   173  0000                     _U1P1H	set	15853
   174  0000                     _U1P1L	set	15852
   175  0000                     _ADCON1bits	set	16121
   176  0000                     _ADERRL	set	16098
   177  0000                     _ADERRH	set	16099
   178  0000                     _ADPREVL	set	16109
   179  0000                     _ADPREVH	set	16110
   180  0000                     _ADFLTRL	set	16102
   181  0000                     _ADFLTRH	set	16103
   182  0000                     _ADSTATbits	set	16124
   183  0000                     _ADACCL	set	16104
   184  0000                     _ADACCH	set	16105
   185  0000                     _ADCON2bits	set	16122
   186  0000                     _ADCNT	set	16107
   187  0000                     _ADCON3bits	set	16123
   188  0000                     _ADRESL	set	16111
   189  0000                     _ADRESH	set	16112
   190  0000                     _ADCON0bits	set	16120
   191  0000                     _ADCON0	set	16120
   192  0000                     _ADCLK	set	16127
   193  0000                     _ADACT	set	16126
   194  0000                     _ADREF	set	16125
   195  0000                     _ADSTAT	set	16124
   196  0000                     _ADCON3	set	16123
   197  0000                     _ADCON2	set	16122
   198  0000                     _ADCON1	set	16121
   199  0000                     _ADPREH	set	16119
   200  0000                     _ADPREL	set	16118
   201  0000                     _ADCAP	set	16117
   202  0000                     _ADACQH	set	16116
   203  0000                     _ADACQL	set	16115
   204  0000                     _ADPCH	set	16113
   205  0000                     _ADRPT	set	16108
   206  0000                     _ADACCU	set	16106
   207  0000                     _ADSTPTH	set	16101
   208  0000                     _ADSTPTL	set	16100
   209  0000                     _ADUTHH	set	16097
   210  0000                     _ADUTHL	set	16096
   211  0000                     _ADLTHH	set	16095
   212  0000                     _ADLTHL	set	16094
   213  0000                     _T0CON0bits	set	16312
   214  0000                     _T0CON0	set	16312
   215  0000                     _TMR0L	set	16310
   216  0000                     _TMR0H	set	16311
   217  0000                     _T0CON1	set	16313
   218  0000                     _LATAbits	set	16314
   219  0000                     _INTCON0bits	set	16338
   220  0000                     _TRISD	set	16325
   221  0000                     _TRISC	set	16324
   222  0000                     _TRISB	set	16323
   223  0000                     _TRISA	set	16322
   224  0000                     _TRISE	set	16326
   225  0000                     _LATC	set	16316
   226  0000                     _LATB	set	16315
   227  0000                     _LATA	set	16314
   228  0000                     _LATD	set	16317
   229  0000                     _LATE	set	16318
   230                           
   231                           	psect	smallconst
   232  002000                     __psmallconst:
   233                           	callstack 0
   234  002000  00                 	db	0
   235  002001                     STR_1:
   236  002001  76                 	db	118	;'v'
   237  002002  61                 	db	97	;'a'
   238  002003  6C                 	db	108	;'l'
   239  002004  75                 	db	117	;'u'
   240  002005  65                 	db	101	;'e'
   241  002006  20                 	db	32
   242  002007  41                 	db	65	;'A'
   243  002008  44                 	db	68	;'D'
   244  002009  43                 	db	67	;'C'
   245  00200A  20                 	db	32
   246  00200B  3A                 	db	58	;':'
   247  00200C  20                 	db	32
   248  00200D  20                 	db	32
   249  00200E  25                 	db	37
   250  00200F  64                 	db	100	;'d'
   251  002010  20                 	db	32
   252  002011  20                 	db	32
   253  002012  0A                 	db	10
   254  002013  00                 	db	0
   255  002014  00                 	db	0	; dummy byte at the end
   256  0000                     
   257                           ; #config settings
   258                           
   259                           	psect	cinit
   260  002D62                     __pcinit:
   261                           	callstack 0
   262  002D62                     start_initialization:
   263                           	callstack 0
   264  002D62                     __initialization:
   265                           	callstack 0
   266                           
   267                           ; Clear objects allocated to BANK0 (40 bytes)
   268  002D62  EE00  F060         	lfsr	0,__pbssBANK0
   269  002D66  0E28               	movlw	40
   270  002D68                     clear_0:
   271  002D68  6AEE               	clrf	postinc0,c
   272  002D6A  06E8               	decf	wreg,f,c
   273  002D6C  E1FD               	bnz	clear_0
   274                           
   275                           ; Clear objects allocated to COMRAM (1 bytes)
   276  002D6E  6A5E               	clrf	__pbssCOMRAM& (0+255),c
   277                           
   278                           ;
   279                           ; Setup IVTBASE
   280                           ;
   281  002D70  0E08               	movlw	(ivt0x8_base shr 0)& (0+255)
   282  002D72  6ED5               	movwf	213,c
   283  002D74  0E00               	movlw	(ivt0x8_base shr (0+8))& (0+255)
   284  002D76  6ED6               	movwf	214,c
   285  002D78  0E00               	movlw	(ivt0x8_base shr (0+16))& (0+255)
   286  002D7A  6ED7               	movwf	215,c
   287  002D7C                     end_of_initialization:
   288                           	callstack 0
   289  002D7C                     __end_of__initialization:
   290                           	callstack 0
   291  002D7C  0100               	movlb	0
   292  002D7E  EFF6  F014         	goto	_main	;jump to C main() function
   293                           
   294                           	psect	bssCOMRAM
   295  00005E                     __pbssCOMRAM:
   296                           	callstack 0
   297  00005E                     _uart1RxLastError:
   298                           	callstack 0
   299  00005E                     	ds	1
   300                           
   301                           	psect	bssBANK0
   302  000060                     __pbssBANK0:
   303                           	callstack 0
   304  000060                     _nout:
   305                           	callstack 0
   306  000060                     	ds	2
   307  000062                     _width:
   308                           	callstack 0
   309  000062                     	ds	2
   310  000064                     _prec:
   311                           	callstack 0
   312  000064                     	ds	2
   313  000066                     _flags:
   314                           	callstack 0
   315  000066                     	ds	2
   316  000068                     _dbuf:
   317                           	callstack 0
   318  000068                     	ds	32
   319                           
   320                           	psect	cstackBANK0
   321  000094                     __pcstackBANK0:
   322                           	callstack 0
   323  000094                     ?_printf:
   324                           	callstack 0
   325  000094                     printf@fmt:
   326                           	callstack 0
   327                           
   328                           ; 2 bytes @ 0x0
   329  000094                     	ds	6
   330  00009A                     printf@ap:
   331                           	callstack 0
   332                           
   333                           ; 2 bytes @ 0x6
   334  00009A                     	ds	2
   335                           
   336                           	psect	cstackCOMRAM
   337  000001                     __pcstackCOMRAM:
   338                           	callstack 0
   339  000001                     ??_TMR0_ISR:
   340  000001                     
   341                           ; 1 bytes @ 0x0
   342  000001                     	ds	1
   343  000002                     ?_ADCC_GetConversionResult:
   344                           	callstack 0
   345  000002                     ?_strlen:
   346                           	callstack 0
   347  000002                     ?___aodiv:
   348                           	callstack 0
   349  000002                     ?___aomod:
   350                           	callstack 0
   351  000002                     UART1_Write@txData:
   352                           	callstack 0
   353  000002                     ADCC_StartConversion@channel:
   354                           	callstack 0
   355  000002                     strlen@s:
   356                           	callstack 0
   357  000002                     UART1_SetFramingErrorHandler@interruptHandler:
   358                           	callstack 0
   359  000002                     UART1_SetOverrunErrorHandler@interruptHandler:
   360                           	callstack 0
   361  000002                     UART1_SetErrorHandler@interruptHandler:
   362                           	callstack 0
   363  000002                     TMR0_SetInterruptHandler@InterruptHandler:
   364                           	callstack 0
   365  000002                     ___aodiv@dividend:
   366                           	callstack 0
   367  000002                     ___aomod@dividend:
   368                           	callstack 0
   369                           
   370                           ; 8 bytes @ 0x1
   371  000002                     	ds	1
   372  000003                     putch@txData:
   373                           	callstack 0
   374                           
   375                           ; 1 bytes @ 0x2
   376  000003                     	ds	1
   377  000004                     ??_ADCC_GetConversionResult:
   378  000004                     fputc@c:
   379                           	callstack 0
   380  000004                     strlen@a:
   381                           	callstack 0
   382                           
   383                           ; 2 bytes @ 0x3
   384  000004                     	ds	1
   385  000005                     
   386                           ; 1 bytes @ 0x4
   387  000005                     	ds	1
   388  000006                     fputc@fp:
   389                           	callstack 0
   390                           
   391                           ; 2 bytes @ 0x5
   392  000006                     	ds	2
   393  000008                     ??_fputc:
   394                           
   395                           ; 1 bytes @ 0x7
   396  000008                     	ds	2
   397  00000A                     ___aodiv@divisor:
   398                           	callstack 0
   399  00000A                     ___aomod@divisor:
   400                           	callstack 0
   401                           
   402                           ; 8 bytes @ 0x9
   403  00000A                     	ds	3
   404  00000D                     fputs@s:
   405                           	callstack 0
   406                           
   407                           ; 2 bytes @ 0xC
   408  00000D                     	ds	2
   409  00000F                     fputs@fp:
   410                           	callstack 0
   411                           
   412                           ; 2 bytes @ 0xE
   413  00000F                     	ds	2
   414  000011                     fputs@c:
   415                           	callstack 0
   416                           
   417                           ; 1 bytes @ 0x10
   418  000011                     	ds	1
   419  000012                     ___aodiv@counter:
   420                           	callstack 0
   421  000012                     ___aomod@counter:
   422                           	callstack 0
   423  000012                     fputs@i:
   424                           	callstack 0
   425                           
   426                           ; 2 bytes @ 0x11
   427  000012                     	ds	1
   428  000013                     ___aodiv@sign:
   429                           	callstack 0
   430  000013                     ___aomod@sign:
   431                           	callstack 0
   432                           
   433                           ; 1 bytes @ 0x12
   434  000013                     	ds	1
   435  000014                     ?_abs:
   436                           	callstack 0
   437  000014                     ?_pad:
   438                           	callstack 0
   439  000014                     pad@fp:
   440                           	callstack 0
   441  000014                     abs@a:
   442                           	callstack 0
   443  000014                     ___aodiv@quotient:
   444                           	callstack 0
   445                           
   446                           ; 8 bytes @ 0x13
   447  000014                     	ds	2
   448  000016                     ??_abs:
   449  000016                     pad@buf:
   450                           	callstack 0
   451                           
   452                           ; 2 bytes @ 0x15
   453  000016                     	ds	2
   454  000018                     pad@p:
   455                           	callstack 0
   456                           
   457                           ; 2 bytes @ 0x17
   458  000018                     	ds	2
   459  00001A                     ??_pad:
   460                           
   461                           ; 1 bytes @ 0x19
   462  00001A                     	ds	1
   463  00001B                     pad@i:
   464                           	callstack 0
   465                           
   466                           ; 2 bytes @ 0x1A
   467  00001B                     	ds	2
   468  00001D                     pad@w:
   469                           	callstack 0
   470                           
   471                           ; 2 bytes @ 0x1C
   472  00001D                     	ds	2
   473  00001F                     ?_dtoa:
   474                           	callstack 0
   475  00001F                     dtoa@fp:
   476                           	callstack 0
   477                           
   478                           ; 2 bytes @ 0x1E
   479  00001F                     	ds	2
   480  000021                     dtoa@d:
   481                           	callstack 0
   482                           
   483                           ; 8 bytes @ 0x20
   484  000021                     	ds	8
   485  000029                     ??_dtoa:
   486                           
   487                           ; 1 bytes @ 0x28
   488  000029                     	ds	8
   489  000031                     _dtoa$1626:
   490                           	callstack 0
   491                           
   492                           ; 2 bytes @ 0x30
   493  000031                     	ds	2
   494  000033                     dtoa@p:
   495                           	callstack 0
   496                           
   497                           ; 2 bytes @ 0x32
   498  000033                     	ds	2
   499  000035                     dtoa@w:
   500                           	callstack 0
   501                           
   502                           ; 2 bytes @ 0x34
   503  000035                     	ds	2
   504  000037                     dtoa@s:
   505                           	callstack 0
   506                           
   507                           ; 2 bytes @ 0x36
   508  000037                     	ds	2
   509  000039                     dtoa@n:
   510                           	callstack 0
   511                           
   512                           ; 8 bytes @ 0x38
   513  000039                     	ds	8
   514  000041                     dtoa@i:
   515                           	callstack 0
   516                           
   517                           ; 2 bytes @ 0x40
   518  000041                     	ds	2
   519  000043                     ?_vfpfcnvrt:
   520                           	callstack 0
   521  000043                     vfpfcnvrt@fp:
   522                           	callstack 0
   523                           
   524                           ; 2 bytes @ 0x42
   525  000043                     	ds	2
   526  000045                     vfpfcnvrt@fmt:
   527                           	callstack 0
   528                           
   529                           ; 2 bytes @ 0x44
   530  000045                     	ds	2
   531  000047                     vfpfcnvrt@ap:
   532                           	callstack 0
   533                           
   534                           ; 2 bytes @ 0x46
   535  000047                     	ds	2
   536  000049                     ??_vfpfcnvrt:
   537                           
   538                           ; 1 bytes @ 0x48
   539  000049                     	ds	2
   540  00004B                     vfpfcnvrt@ll:
   541                           	callstack 0
   542                           
   543                           ; 8 bytes @ 0x4A
   544  00004B                     	ds	8
   545  000053                     ?_vfprintf:
   546                           	callstack 0
   547  000053                     vfprintf@fp:
   548                           	callstack 0
   549                           
   550                           ; 2 bytes @ 0x52
   551  000053                     	ds	2
   552  000055                     vfprintf@fmt:
   553                           	callstack 0
   554                           
   555                           ; 2 bytes @ 0x54
   556  000055                     	ds	2
   557  000057                     vfprintf@ap:
   558                           	callstack 0
   559                           
   560                           ; 2 bytes @ 0x56
   561  000057                     	ds	2
   562  000059                     vfprintf@cfmt:
   563                           	callstack 0
   564                           
   565                           ; 2 bytes @ 0x58
   566  000059                     	ds	2
   567  00005B                     ??_main:
   568                           
   569                           ; 1 bytes @ 0x5A
   570  00005B                     	ds	1
   571  00005C                     main@convertedValue:
   572                           	callstack 0
   573                           
   574                           ; 2 bytes @ 0x5B
   575  00005C                     	ds	2
   576                           
   577 ;;
   578 ;;Main: autosize = 0, tempsize = 1, incstack = 0, save=0
   579 ;;
   580 ;; *************** function _main *****************
   581 ;; Defined at:
   582 ;;		line 51 in file "main.c"
   583 ;; Parameters:    Size  Location     Type
   584 ;;		None
   585 ;; Auto vars:     Size  Location     Type
   586 ;;  convertedVal    2   91[COMRAM] unsigned short 
   587 ;; Return value:  Size  Location     Type
   588 ;;                  1    wreg      void 
   589 ;; Registers used:
   590 ;;		wreg, fsr1l, fsr1h, fsr2l, fsr2h, status,2, status,0, tblptrl, tblptrh, tblptru, cstack
   591 ;; Tracked objects:
   592 ;;		On entry : 0/0
   593 ;;		On exit  : 0/0
   594 ;;		Unchanged: 0/0
   595 ;; Data sizes:     COMRAM   BANK0   BANK1   BANK2   BANK3   BANK4   BANK5   BANK6   BANK7   BANK8   BANK9  BANK10  BANK1
      +1  BANK12  BANK13  BANK14  BANK15  BANK16  BANK17  BANK18  BANK19  BANK20  BANK21  BANK22  BANK23  BANK24  BANK25  BANK2
      +6  BANK27  BANK28  BANK29  BANK30  BANK31
   596 ;;      Params:         0       0       0       0       0       0       0       0       0       0       0       0       
      +0       0       0       0       0       0       0       0       0       0       0       0       0       0       0       
      +0       0       0       0       0       0
   597 ;;      Locals:         2       0       0       0       0       0       0       0       0       0       0       0       
      +0       0       0       0       0       0       0       0       0       0       0       0       0       0       0       
      +0       0       0       0       0       0
   598 ;;      Temps:          1       0       0       0       0       0       0       0       0       0       0       0       
      +0       0       0       0       0       0       0       0       0       0       0       0       0       0       0       
      +0       0       0       0       0       0
   599 ;;      Totals:         3       0       0       0       0       0       0       0       0       0       0       0       
      +0       0       0       0       0       0       0       0       0       0       0       0       0       0       0       
      +0       0       0       0       0       0
   600 ;;Total ram usage:        3 bytes
   601 ;; Hardware stack levels required when called:   12
   602 ;; This function calls:
   603 ;;		_ADCC_GetConversionResult
   604 ;;		_ADCC_Initialize
   605 ;;		_ADCC_IsConversionDone
   606 ;;		_ADCC_StartConversion
   607 ;;		_INTERRUPT_Initialize
   608 ;;		_SYSTEM_Initialize
   609 ;;		_TMR0_Initialize
   610 ;;		_TMR0_StartTimer
   611 ;;		_printf
   612 ;; This function is called by:
   613 ;;		Startup code after reset
   614 ;; This function uses a non-reentrant model
   615 ;;
   616                           
   617                           	psect	text0
   618  0029EC                     __ptext0:
   619                           	callstack 0
   620  0029EC                     _main:
   621                           	callstack 19
   622  0029EC                     
   623                           ;main.c: 54:     SYSTEM_Initialize();
   624  0029EC  ECC1  F016         	call	_SYSTEM_Initialize	;wreg free
   625  0029F0                     
   626                           ;main.c: 55:     ADCC_Initialize();
   627  0029F0  ECAA  F015         	call	_ADCC_Initialize	;wreg free
   628  0029F4                     
   629                           ;main.c: 56:     TMR0_Initialize();
   630  0029F4  EC79  F016         	call	_TMR0_Initialize	;wreg free
   631  0029F8                     
   632                           ;main.c: 57:     INTCON0bits.GIE = 1;
   633  0029F8  8ED2               	bsf	210,7,c	;volatile
   634  0029FA                     
   635                           ;main.c: 58:     INTERRUPT_Initialize ();
   636  0029FA  EC2A  F017         	call	_INTERRUPT_Initialize	;wreg free
   637  0029FE  9ABA               	bcf	186,5,c	;volatile
   638  002A00                     
   639                           ;main.c: 72:     adc_result_t convertedValue;;main.c: 73:     TMR0_StartTimer();
   640  002A00  EC28  F017         	call	_TMR0_StartTimer	;wreg free
   641  002A04                     l2638:
   642                           
   643                           ;main.c: 77:     {;main.c: 78:       _delay((unsigned long)((500)*(1000000/4000.0)));
   644  002A04  0EA3               	movlw	163
   645  002A06  6E5B               	movwf	??_main^0,c
   646  002A08  0E55               	movlw	85
   647  002A0A                     u1757:
   648  002A0A  2EE8               	decfsz	wreg,f,c
   649  002A0C  D7FE               	bra	u1757
   650  002A0E  2E5B               	decfsz	??_main^0,f,c
   651  002A10  D7FC               	bra	u1757
   652  002A12  F000               	nop	
   653  002A14                     
   654                           ;main.c: 79:       ADCC_StartConversion(channel_ANA4);
   655  002A14  0E04               	movlw	4
   656  002A16  ECFF  F016         	call	_ADCC_StartConversion
   657  002A1A                     l2642:
   658  002A1A  ECE9  F016         	call	_ADCC_IsConversionDone	;wreg free
   659  002A1E  0900               	iorlw	0
   660  002A20  B4D8               	btfsc	status,2,c
   661  002A22  EF15  F015         	goto	u1731
   662  002A26  EF17  F015         	goto	u1730
   663  002A2A                     u1731:
   664  002A2A  EF0D  F015         	goto	l2642
   665  002A2E                     u1730:
   666  002A2E                     
   667                           ;main.c: 81:       convertedValue = ADCC_GetConversionResult();
   668  002A2E  ECF4  F016         	call	_ADCC_GetConversionResult	;wreg free
   669  002A32  C002  F05C         	movff	?_ADCC_GetConversionResult,main@convertedValue
   670  002A36  C003  F05D         	movff	?_ADCC_GetConversionResult+1,main@convertedValue+1
   671  002A3A                     
   672                           ;main.c: 83:       printf("value ADC :  %d  \n",convertedValue);
   673  002A3A  0E01               	movlw	low STR_1
   674  002A3C  0100               	movlb	0	; () banked
   675  002A3E  6F94               	movwf	printf@fmt& (0+255),b
   676  002A40  0E20               	movlw	high STR_1
   677  002A42  6F95               	movwf	(printf@fmt+1)& (0+255),b
   678  002A44  C05C  F096         	movff	main@convertedValue,?_printf+2
   679  002A48  C05D  F097         	movff	main@convertedValue+1,?_printf+3
   680  002A4C  EC65  F016         	call	_printf	;wreg free
   681  002A50                     
   682                           ;main.c: 85:       if(convertedValue > 2000){
   683  002A50  0ED1               	movlw	209
   684  002A52  5C5C               	subwf	main@convertedValue^0,w,c
   685  002A54  0E07               	movlw	7
   686  002A56  585D               	subwfb	(main@convertedValue+1)^0,w,c
   687  002A58  A0D8               	btfss	status,0,c
   688  002A5A  EF31  F015         	goto	u1741
   689  002A5E  EF33  F015         	goto	u1740
   690  002A62                     u1741:
   691  002A62  EF36  F015         	goto	l296
   692  002A66                     u1740:
   693  002A66  8ABA               	bsf	186,5,c	;volatile
   694  002A68  EF02  F015         	goto	l2638
   695  002A6C                     l296:
   696  002A6C  9ABA               	bcf	186,5,c	;volatile
   697  002A6E  EF02  F015         	goto	l2638
   698  002A72  EF0D  F000         	goto	start
   699  002A76                     __end_of_main:
   700                           	callstack 0
   701                           
   702 ;; *************** function _printf *****************
   703 ;; Defined at:
   704 ;;		line 5 in file "C:\Program Files\Microchip\xc8\v2.31\pic\sources\c99\common\printf.c"
   705 ;; Parameters:    Size  Location     Type
   706 ;;  fmt             2    0[BANK0 ] PTR const unsigned char 
   707 ;;		 -> STR_1(19), 
   708 ;; Auto vars:     Size  Location     Type
   709 ;;  ap              2    6[BANK0 ] PTR void [1]
   710 ;;		 -> ?_printf(2), 
   711 ;;  ret             2    0        int 
   712 ;; Return value:  Size  Location     Type
   713 ;;                  2    0[BANK0 ] int 
   714 ;; Registers used:
   715 ;;		wreg, fsr1l, fsr1h, fsr2l, fsr2h, status,2, status,0, tblptrl, tblptrh, tblptru, cstack
   716 ;; Tracked objects:
   717 ;;		On entry : 0/0
   718 ;;		On exit  : 0/0
   719 ;;		Unchanged: 0/0
   720 ;; Data sizes:     COMRAM   BANK0   BANK1   BANK2   BANK3   BANK4   BANK5   BANK6   BANK7   BANK8   BANK9  BANK10  BANK1
      +1  BANK12  BANK13  BANK14  BANK15  BANK16  BANK17  BANK18  BANK19  BANK20  BANK21  BANK22  BANK23  BANK24  BANK25  BANK2
      +6  BANK27  BANK28  BANK29  BANK30  BANK31
   721 ;;      Params:         0       4       0       0       0       0       0       0       0       0       0       0       
      +0       0       0       0       0       0       0       0       0       0       0       0       0       0       0       
      +0       0       0       0       0       0
   722 ;;      Locals:         0       4       0       0       0       0       0       0       0       0       0       0       
      +0       0       0       0       0       0       0       0       0       0       0       0       0       0       0       
      +0       0       0       0       0       0
   723 ;;      Temps:          0       0       0       0       0       0       0       0       0       0       0       0       
      +0       0       0       0       0       0       0       0       0       0       0       0       0       0       0       
      +0       0       0       0       0       0
   724 ;;      Totals:         0       8       0       0       0       0       0       0       0       0       0       0       
      +0       0       0       0       0       0       0       0       0       0       0       0       0       0       0       
      +0       0       0       0       0       0
   725 ;;Total ram usage:        8 bytes
   726 ;; Hardware stack levels used:    1
   727 ;; Hardware stack levels required when called:   11
   728 ;; This function calls:
   729 ;;		_vfprintf
   730 ;; This function is called by:
   731 ;;		_main
   732 ;; This function uses a non-reentrant model
   733 ;;
   734                           
   735                           	psect	text1
   736  002CCA                     __ptext1:
   737                           	callstack 0
   738  002CCA                     _printf:
   739                           	callstack 19
   740  002CCA  0E96               	movlw	low (?_printf+2)
   741  002CCC  0100               	movlb	0	; () banked
   742  002CCE  6F9A               	movwf	printf@ap& (0+255),b
   743  002CD0  0E00               	movlw	high (?_printf+2)
   744  002CD2  6F9B               	movwf	(printf@ap+1)& (0+255),b
   745  002CD4                     
   746                           ; BSR set to: 0
   747  002CD4  0E00               	movlw	0
   748  002CD6  6E53               	movwf	vfprintf@fp^0,c
   749  002CD8  0E00               	movlw	0
   750  002CDA  6E54               	movwf	(vfprintf@fp+1)^0,c
   751  002CDC  C094  F055         	movff	printf@fmt,vfprintf@fmt
   752  002CE0  C095  F056         	movff	printf@fmt+1,vfprintf@fmt+1
   753  002CE4  0E9A               	movlw	low printf@ap
   754  002CE6  6E57               	movwf	vfprintf@ap^0,c
   755  002CE8  0E00               	movlw	high printf@ap
   756  002CEA  6E58               	movwf	(vfprintf@ap+1)^0,c
   757  002CEC  EC75  F015         	call	_vfprintf	;wreg free
   758  002CF0  0012               	return		;funcret
   759  002CF2                     __end_of_printf:
   760                           	callstack 0
   761                           
   762 ;; *************** function _vfprintf *****************
   763 ;; Defined at:
   764 ;;		line 1390 in file "C:\Program Files\Microchip\xc8\v2.31\pic\sources\c99\common\doprnt.c"
   765 ;; Parameters:    Size  Location     Type
   766 ;;  fp              2   82[COMRAM] PTR struct _IO_FILE
   767 ;;		 -> NULL(0), 
   768 ;;  fmt             2   84[COMRAM] PTR const unsigned char 
   769 ;;		 -> STR_1(19), 
   770 ;;  ap              2   86[COMRAM] PTR PTR void 
   771 ;;		 -> printf@ap(2), 
   772 ;; Auto vars:     Size  Location     Type
   773 ;;  cfmt            2   88[COMRAM] PTR unsigned char 
   774 ;;		 -> STR_1(19), 
   775 ;; Return value:  Size  Location     Type
   776 ;;                  2   82[COMRAM] int 
   777 ;; Registers used:
   778 ;;		wreg, fsr1l, fsr1h, fsr2l, fsr2h, status,2, status,0, tblptrl, tblptrh, tblptru, cstack
   779 ;; Tracked objects:
   780 ;;		On entry : 0/0
   781 ;;		On exit  : 0/0
   782 ;;		Unchanged: 0/0
   783 ;; Data sizes:     COMRAM   BANK0   BANK1   BANK2   BANK3   BANK4   BANK5   BANK6   BANK7   BANK8   BANK9  BANK10  BANK1
      +1  BANK12  BANK13  BANK14  BANK15  BANK16  BANK17  BANK18  BANK19  BANK20  BANK21  BANK22  BANK23  BANK24  BANK25  BANK2
      +6  BANK27  BANK28  BANK29  BANK30  BANK31
   784 ;;      Params:         6       0       0       0       0       0       0       0       0       0       0       0       
      +0       0       0       0       0       0       0       0       0       0       0       0       0       0       0       
      +0       0       0       0       0       0
   785 ;;      Locals:         2       0       0       0       0       0       0       0       0       0       0       0       
      +0       0       0       0       0       0       0       0       0       0       0       0       0       0       0       
      +0       0       0       0       0       0
   786 ;;      Temps:          0       0       0       0       0       0       0       0       0       0       0       0       
      +0       0       0       0       0       0       0       0       0       0       0       0       0       0       0       
      +0       0       0       0       0       0
   787 ;;      Totals:         8       0       0       0       0       0       0       0       0       0       0       0       
      +0       0       0       0       0       0       0       0       0       0       0       0       0       0       0       
      +0       0       0       0       0       0
   788 ;;Total ram usage:        8 bytes
   789 ;; Hardware stack levels used:    1
   790 ;; Hardware stack levels required when called:   10
   791 ;; This function calls:
   792 ;;		_vfpfcnvrt
   793 ;; This function is called by:
   794 ;;		_printf
   795 ;; This function uses a non-reentrant model
   796 ;;
   797                           
   798                           	psect	text2
   799  002AEA                     __ptext2:
   800                           	callstack 0
   801  002AEA                     _vfprintf:
   802                           	callstack 19
   803  002AEA                     
   804                           ;C:\Program Files\Microchip\xc8\v2.31\pic\sources\c99\common\doprnt.c: 1390: int vfprint
      +                          f(FILE *fp, const char *fmt, va_list ap);C:\Program Files\Microchip\xc8\v2.31\pic\source
      +                          s\c99\common\doprnt.c: 1391: {;C:\Program Files\Microchip\xc8\v2.31\pic\sources\c99\comm
      +                          on\doprnt.c: 1393:     char *cfmt;;C:\Program Files\Microchip\xc8\v2.31\pic\sources\c99\
      +                          common\doprnt.c: 1395:     cfmt = (char *)fmt;
   805  002AEA  C055  F059         	movff	vfprintf@fmt,vfprintf@cfmt
   806  002AEE  C056  F05A         	movff	vfprintf@fmt+1,vfprintf@cfmt+1
   807  002AF2                     
   808                           ;C:\Program Files\Microchip\xc8\v2.31\pic\sources\c99\common\doprnt.c: 1396:     nout = 
      +                          0;
   809  002AF2  0E00               	movlw	0
   810  002AF4  0100               	movlb	0	; () banked
   811  002AF6  6F61               	movwf	(_nout+1)& (0+255),b
   812  002AF8  0E00               	movlw	0
   813  002AFA  6F60               	movwf	_nout& (0+255),b
   814                           
   815                           ;C:\Program Files\Microchip\xc8\v2.31\pic\sources\c99\common\doprnt.c: 1397:     while (
      +                          *cfmt) {
   816  002AFC  EF93  F015         	goto	l2586
   817  002B00                     l2584:
   818                           
   819                           ; BSR set to: 0
   820                           ;C:\Program Files\Microchip\xc8\v2.31\pic\sources\c99\common\doprnt.c: 1398:         nou
      +                          t += vfpfcnvrt(fp, &cfmt, ap);
   821  002B00  C053  F043         	movff	vfprintf@fp,vfpfcnvrt@fp
   822  002B04  C054  F044         	movff	vfprintf@fp+1,vfpfcnvrt@fp+1
   823  002B08  0E59               	movlw	low vfprintf@cfmt
   824  002B0A  6E45               	movwf	vfpfcnvrt@fmt^0,c
   825  002B0C  0E00               	movlw	high vfprintf@cfmt
   826  002B0E  6E46               	movwf	(vfpfcnvrt@fmt+1)^0,c
   827  002B10  C057  F047         	movff	vfprintf@ap,vfpfcnvrt@ap
   828  002B14  C058  F048         	movff	vfprintf@ap+1,vfpfcnvrt@ap+1
   829  002B18  EC7D  F011         	call	_vfpfcnvrt	;wreg free
   830  002B1C  5043               	movf	?_vfpfcnvrt^0,w,c
   831  002B1E  0100               	movlb	0	; () banked
   832  002B20  2760               	addwf	_nout& (0+255),f,b
   833  002B22  5044               	movf	(?_vfpfcnvrt+1)^0,w,c
   834  002B24  2361               	addwfc	(_nout+1)& (0+255),f,b
   835  002B26                     l2586:
   836                           
   837                           ; BSR set to: 0
   838                           ;C:\Program Files\Microchip\xc8\v2.31\pic\sources\c99\common\doprnt.c: 1397:     while (
      +                          *cfmt) {
   839  002B26  0060  F167  FFF6   	movff	vfprintf@cfmt,tblptrl
   840  002B2C  0060  F16B  FFF7   	movff	vfprintf@cfmt+1,tblptrh
   841  002B32                     	if	0	;tblptru may be non-zero
   842  002B32                     	endif
   843  002B32                     	if	1	;Program memory is > 0xFFFF, there are 3 active tblptr bytes
   844  002B32  0E00               	movlw	low (__mediumconst shr (0+16))
   845  002B34  6EF8               	movwf	tblptru,c
   846  002B36                     	endif
   847  002B36  0008               	tblrd		*
   848  002B38  50F5               	movf	tablat,w,c
   849  002B3A  0900               	iorlw	0
   850  002B3C  A4D8               	btfss	status,2,c
   851  002B3E  EFA3  F015         	goto	u1701
   852  002B42  EFA5  F015         	goto	u1700
   853  002B46                     u1701:
   854  002B46  EF80  F015         	goto	l2584
   855  002B4A                     u1700:
   856  002B4A                     
   857                           ; BSR set to: 0
   858                           ;C:\Program Files\Microchip\xc8\v2.31\pic\sources\c99\common\doprnt.c: 1400:     return 
      +                          nout;
   859  002B4A  C060  F053         	movff	_nout,?_vfprintf
   860  002B4E  C061  F054         	movff	_nout+1,?_vfprintf+1
   861  002B52                     
   862                           ; BSR set to: 0
   863  002B52  0012               	return		;funcret
   864  002B54                     __end_of_vfprintf:
   865                           	callstack 0
   866                           
   867 ;; *************** function _vfpfcnvrt *****************
   868 ;; Defined at:
   869 ;;		line 692 in file "C:\Program Files\Microchip\xc8\v2.31\pic\sources\c99\common\doprnt.c"
   870 ;; Parameters:    Size  Location     Type
   871 ;;  fp              2   66[COMRAM] PTR struct _IO_FILE
   872 ;;		 -> NULL(0), 
   873 ;;  fmt             2   68[COMRAM] PTR PTR unsigned char 
   874 ;;		 -> vfprintf@cfmt(2), 
   875 ;;  ap              2   70[COMRAM] PTR PTR void 
   876 ;;		 -> printf@ap(2), 
   877 ;; Auto vars:     Size  Location     Type
   878 ;;  ll              8   74[COMRAM] long long 
   879 ;;  llu             8    0        unsigned long long 
   880 ;;  f               4    0        unsigned long long 
   881 ;;  vp              3    0        PTR void 
   882 ;;  ct              3    0        unsigned char [3]
   883 ;;  cp              3    0        PTR unsigned char 
   884 ;;  i               2    0        int 
   885 ;;  done            2    0        int 
   886 ;;  c               1    0        unsigned char 
   887 ;; Return value:  Size  Location     Type
   888 ;;                  2   66[COMRAM] int 
   889 ;; Registers used:
   890 ;;		wreg, fsr1l, fsr1h, fsr2l, fsr2h, status,2, status,0, tblptrl, tblptrh, tblptru, cstack
   891 ;; Tracked objects:
   892 ;;		On entry : 0/0
   893 ;;		On exit  : 0/0
   894 ;;		Unchanged: 0/0
   895 ;; Data sizes:     COMRAM   BANK0   BANK1   BANK2   BANK3   BANK4   BANK5   BANK6   BANK7   BANK8   BANK9  BANK10  BANK1
      +1  BANK12  BANK13  BANK14  BANK15  BANK16  BANK17  BANK18  BANK19  BANK20  BANK21  BANK22  BANK23  BANK24  BANK25  BANK2
      +6  BANK27  BANK28  BANK29  BANK30  BANK31
   896 ;;      Params:         6       0       0       0       0       0       0       0       0       0       0       0       
      +0       0       0       0       0       0       0       0       0       0       0       0       0       0       0       
      +0       0       0       0       0       0
   897 ;;      Locals:         8       0       0       0       0       0       0       0       0       0       0       0       
      +0       0       0       0       0       0       0       0       0       0       0       0       0       0       0       
      +0       0       0       0       0       0
   898 ;;      Temps:          2       0       0       0       0       0       0       0       0       0       0       0       
      +0       0       0       0       0       0       0       0       0       0       0       0       0       0       0       
      +0       0       0       0       0       0
   899 ;;      Totals:        16       0       0       0       0       0       0       0       0       0       0       0       
      +0       0       0       0       0       0       0       0       0       0       0       0       0       0       0       
      +0       0       0       0       0       0
   900 ;;Total ram usage:       16 bytes
   901 ;; Hardware stack levels used:    1
   902 ;; Hardware stack levels required when called:    9
   903 ;; This function calls:
   904 ;;		_dtoa
   905 ;;		_fputc
   906 ;; This function is called by:
   907 ;;		_vfprintf
   908 ;; This function uses a non-reentrant model
   909 ;;
   910                           
   911                           	psect	text3
   912  0022FA                     __ptext3:
   913                           	callstack 0
   914  0022FA                     _vfpfcnvrt:
   915                           	callstack 19
   916  0022FA                     
   917                           ;C:\Program Files\Microchip\xc8\v2.31\pic\sources\c99\common\doprnt.c: 692: static int v
      +                          fpfcnvrt(FILE *fp, char *fmt[], va_list ap);C:\Program Files\Microchip\xc8\v2.31\pic\sou
      +                          rces\c99\common\doprnt.c: 693: {;C:\Program Files\Microchip\xc8\v2.31\pic\sources\c99\co
      +                          mmon\doprnt.c: 694:     char c, *cp, ct[3];;C:\Program Files\Microchip\xc8\v2.31\pic\sou
      +                          rces\c99\common\doprnt.c: 695:     int done, i;;C:\Program Files\Microchip\xc8\v2.31\pic
      +                          \sources\c99\common\doprnt.c: 696:     long long ll;;C:\Program Files\Microchip\xc8\v2.3
      +                          1\pic\sources\c99\common\doprnt.c: 697:     unsigned long long llu;
   918  0022FA  0060  F117  FFD9   	movff	vfpfcnvrt@fmt,fsr2l
   919  002300  0060  F11B  FFDA   	movff	vfpfcnvrt@fmt+1,fsr2h
   920  002306  006F FF7B FFF6     	movff	postinc2,tblptrl
   921  00230C  006F FF77 FFF7     	movff	postdec2,tblptrh
   922  002312                     	if	0	;tblptru may be non-zero
   923  002312                     	endif
   924  002312                     	if	1	;Program memory is > 0xFFFF, there are 3 active tblptr bytes
   925  002312  0E00               	movlw	low (__mediumconst shr (0+16))
   926  002314  6EF8               	movwf	tblptru,c
   927  002316                     	endif
   928  002316  0008               	tblrd		*
   929  002318  50F5               	movf	tablat,w,c
   930  00231A  0A25               	xorlw	37
   931  00231C  A4D8               	btfss	status,2,c
   932  00231E  EF93  F011         	goto	u1661
   933  002322  EF95  F011         	goto	u1660
   934  002326                     u1661:
   935  002326  EF63  F012         	goto	l2516
   936  00232A                     u1660:
   937  00232A                     
   938                           ;C:\Program Files\Microchip\xc8\v2.31\pic\sources\c99\common\doprnt.c: 703:         ++*f
      +                          mt;
   939  00232A  0060  F117  FFD9   	movff	vfpfcnvrt@fmt,fsr2l
   940  002330  0060  F11B  FFDA   	movff	vfpfcnvrt@fmt+1,fsr2h
   941  002336  2ADE               	incf	postinc2,f,c
   942  002338  0E00               	movlw	0
   943  00233A  22DD               	addwfc	postdec2,f,c
   944  00233C                     
   945                           ;C:\Program Files\Microchip\xc8\v2.31\pic\sources\c99\common\doprnt.c: 705:         flag
      +                          s = width = 0;
   946  00233C  0E00               	movlw	0
   947  00233E  0100               	movlb	0	; () banked
   948  002340  6F63               	movwf	(_width+1)& (0+255),b
   949  002342  0E00               	movlw	0
   950  002344  6F62               	movwf	_width& (0+255),b
   951  002346  C062  F066         	movff	_width,_flags
   952  00234A  C063  F067         	movff	_width+1,_flags+1
   953  00234E                     
   954                           ; BSR set to: 0
   955                           ;C:\Program Files\Microchip\xc8\v2.31\pic\sources\c99\common\doprnt.c: 706:         prec
      +                           = -1;
   956  00234E  6964               	setf	_prec& (0+255),b
   957  002350  6965               	setf	(_prec+1)& (0+255),b
   958  002352                     
   959                           ; BSR set to: 0
   960                           ;C:\Program Files\Microchip\xc8\v2.31\pic\sources\c99\common\doprnt.c: 847:         if (
      +                          (*fmt[0] == 'd') || (*fmt[0] == 'i')) {
   961  002352  0060  F117  FFD9   	movff	vfpfcnvrt@fmt,fsr2l
   962  002358  0060  F11B  FFDA   	movff	vfpfcnvrt@fmt+1,fsr2h
   963  00235E  006F FF7B FFF6     	movff	postinc2,tblptrl
   964  002364  006F FF77 FFF7     	movff	postdec2,tblptrh
   965  00236A                     	if	0	;tblptru may be non-zero
   966  00236A                     	endif
   967  00236A                     	if	1	;Program memory is > 0xFFFF, there are 3 active tblptr bytes
   968  00236A  0E00               	movlw	low (__mediumconst shr (0+16))
   969  00236C  6EF8               	movwf	tblptru,c
   970  00236E                     	endif
   971  00236E  0008               	tblrd		*
   972  002370  50F5               	movf	tablat,w,c
   973  002372  0A64               	xorlw	100
   974  002374  B4D8               	btfsc	status,2,c
   975  002376  EFBF  F011         	goto	u1671
   976  00237A  EFC1  F011         	goto	u1670
   977  00237E                     u1671:
   978  00237E  EFD9  F011         	goto	l2494
   979  002382                     u1670:
   980  002382                     
   981                           ; BSR set to: 0
   982  002382  0060  F117  FFD9   	movff	vfpfcnvrt@fmt,fsr2l
   983  002388  0060  F11B  FFDA   	movff	vfpfcnvrt@fmt+1,fsr2h
   984  00238E  006F FF7B FFF6     	movff	postinc2,tblptrl
   985  002394  006F FF77 FFF7     	movff	postdec2,tblptrh
   986  00239A                     	if	0	;tblptru may be non-zero
   987  00239A                     	endif
   988  00239A                     	if	1	;Program memory is > 0xFFFF, there are 3 active tblptr bytes
   989  00239A  0E00               	movlw	low (__mediumconst shr (0+16))
   990  00239C  6EF8               	movwf	tblptru,c
   991  00239E                     	endif
   992  00239E  0008               	tblrd		*
   993  0023A0  50F5               	movf	tablat,w,c
   994  0023A2  0A69               	xorlw	105
   995  0023A4  A4D8               	btfss	status,2,c
   996  0023A6  EFD7  F011         	goto	u1681
   997  0023AA  EFD9  F011         	goto	u1680
   998  0023AE                     u1681:
   999  0023AE  EF23  F012         	goto	l2500
  1000  0023B2                     u1680:
  1001  0023B2                     l2494:
  1002                           
  1003                           ; BSR set to: 0
  1004                           ;C:\Program Files\Microchip\xc8\v2.31\pic\sources\c99\common\doprnt.c: 849:             
      +                          ++*fmt;
  1005  0023B2  0060  F117  FFD9   	movff	vfpfcnvrt@fmt,fsr2l
  1006  0023B8  0060  F11B  FFDA   	movff	vfpfcnvrt@fmt+1,fsr2h
  1007  0023BE  2ADE               	incf	postinc2,f,c
  1008  0023C0  0E00               	movlw	0
  1009  0023C2  22DD               	addwfc	postdec2,f,c
  1010                           
  1011                           ;C:\Program Files\Microchip\xc8\v2.31\pic\sources\c99\common\doprnt.c: 850:             
      +                          ll = (long long)(*(int *)__va_arg(*(int **)ap, (int)0));
  1012  0023C4  0060  F11F  FFD9   	movff	vfpfcnvrt@ap,fsr2l
  1013  0023CA  0060  F123  FFDA   	movff	vfpfcnvrt@ap+1,fsr2h
  1014  0023D0  006F FF7C  F049    	movff	indf2,??_vfpfcnvrt
  1015  0023D6  0E02               	movlw	2
  1016  0023D8  26DE               	addwf	postinc2,f,c
  1017  0023DA  006F FF7C  F04A    	movff	indf2,??_vfpfcnvrt+1
  1018  0023E0  0E00               	movlw	0
  1019  0023E2  22DD               	addwfc	postdec2,f,c
  1020  0023E4  0060  F127  FFD9   	movff	??_vfpfcnvrt,fsr2l
  1021  0023EA  0060  F12B  FFDA   	movff	??_vfpfcnvrt+1,fsr2h
  1022  0023F0  006F FF78  F04B    	movff	postinc2,vfpfcnvrt@ll
  1023  0023F6  006F FF74  F04C    	movff	postdec2,vfpfcnvrt@ll+1
  1024  0023FC  0E00               	movlw	0
  1025  0023FE  BE4C               	btfsc	(vfpfcnvrt@ll+1)^0,7,c
  1026  002400  0EFF               	movlw	-1
  1027  002402  6E4D               	movwf	(vfpfcnvrt@ll+2)^0,c
  1028  002404  6E4E               	movwf	(vfpfcnvrt@ll+3)^0,c
  1029  002406  6E4F               	movwf	(vfpfcnvrt@ll+4)^0,c
  1030  002408  6E50               	movwf	(vfpfcnvrt@ll+5)^0,c
  1031  00240A  6E51               	movwf	(vfpfcnvrt@ll+6)^0,c
  1032  00240C  6E52               	movwf	(vfpfcnvrt@ll+7)^0,c
  1033  00240E                     
  1034                           ; BSR set to: 0
  1035                           ;C:\Program Files\Microchip\xc8\v2.31\pic\sources\c99\common\doprnt.c: 852:             
      +                          return dtoa(fp, ll);
  1036  00240E  C043  F01F         	movff	vfpfcnvrt@fp,dtoa@fp
  1037  002412  C044  F020         	movff	vfpfcnvrt@fp+1,dtoa@fp+1
  1038  002416  C04B  F021         	movff	vfpfcnvrt@ll,dtoa@d
  1039  00241A  C04C  F022         	movff	vfpfcnvrt@ll+1,dtoa@d+1
  1040  00241E  C04D  F023         	movff	vfpfcnvrt@ll+2,dtoa@d+2
  1041  002422  C04E  F024         	movff	vfpfcnvrt@ll+3,dtoa@d+3
  1042  002426  C04F  F025         	movff	vfpfcnvrt@ll+4,dtoa@d+4
  1043  00242A  C050  F026         	movff	vfpfcnvrt@ll+5,dtoa@d+5
  1044  00242E  C051  F027         	movff	vfpfcnvrt@ll+6,dtoa@d+6
  1045  002432  C052  F028         	movff	vfpfcnvrt@ll+7,dtoa@d+7
  1046  002436  EC0B  F010         	call	_dtoa	;wreg free
  1047  00243A  C01F  F043         	movff	?_dtoa,?_vfpfcnvrt
  1048  00243E  C020  F044         	movff	?_dtoa+1,?_vfpfcnvrt+1
  1049  002442  EF86  F012         	goto	l1274
  1050  002446                     l2500:
  1051                           
  1052                           ; BSR set to: 0
  1053                           ;C:\Program Files\Microchip\xc8\v2.31\pic\sources\c99\common\doprnt.c: 1372:         if 
      +                          ((*fmt)[0] == '%') {
  1054  002446  0060  F117  FFD9   	movff	vfpfcnvrt@fmt,fsr2l
  1055  00244C  0060  F11B  FFDA   	movff	vfpfcnvrt@fmt+1,fsr2h
  1056  002452  006F FF7B FFF6     	movff	postinc2,tblptrl
  1057  002458  006F FF77 FFF7     	movff	postdec2,tblptrh
  1058  00245E                     	if	0	;tblptru may be non-zero
  1059  00245E                     	endif
  1060  00245E                     	if	1	;Program memory is > 0xFFFF, there are 3 active tblptr bytes
  1061  00245E  0E00               	movlw	low (__mediumconst shr (0+16))
  1062  002460  6EF8               	movwf	tblptru,c
  1063  002462                     	endif
  1064  002462  0008               	tblrd		*
  1065  002464  50F5               	movf	tablat,w,c
  1066  002466  0A25               	xorlw	37
  1067  002468  A4D8               	btfss	status,2,c
  1068  00246A  EF39  F012         	goto	u1691
  1069  00246E  EF3B  F012         	goto	u1690
  1070  002472                     u1691:
  1071  002472  EF54  F012         	goto	l2510
  1072  002476                     u1690:
  1073  002476                     
  1074                           ; BSR set to: 0
  1075                           ;C:\Program Files\Microchip\xc8\v2.31\pic\sources\c99\common\doprnt.c: 1373:            
      +                           ++*fmt;
  1076  002476  0060  F117  FFD9   	movff	vfpfcnvrt@fmt,fsr2l
  1077  00247C  0060  F11B  FFDA   	movff	vfpfcnvrt@fmt+1,fsr2h
  1078  002482  2ADE               	incf	postinc2,f,c
  1079  002484  0E00               	movlw	0
  1080  002486  22DD               	addwfc	postdec2,f,c
  1081  002488                     
  1082                           ; BSR set to: 0
  1083                           ;C:\Program Files\Microchip\xc8\v2.31\pic\sources\c99\common\doprnt.c: 1374:            
      +                           fputc((int)'%', fp);
  1084  002488  0E00               	movlw	0
  1085  00248A  6E05               	movwf	(fputc@c+1)^0,c
  1086  00248C  0E25               	movlw	37
  1087  00248E  6E04               	movwf	fputc@c^0,c
  1088  002490  C043  F006         	movff	vfpfcnvrt@fp,fputc@fp
  1089  002494  C044  F007         	movff	vfpfcnvrt@fp+1,fputc@fp+1
  1090  002498  EC60  F014         	call	_fputc	;wreg free
  1091  00249C                     l2506:
  1092                           
  1093                           ;C:\Program Files\Microchip\xc8\v2.31\pic\sources\c99\common\doprnt.c: 1375:            
      +                           return 1;
  1094  00249C  0E00               	movlw	0
  1095  00249E  6E44               	movwf	(?_vfpfcnvrt+1)^0,c
  1096  0024A0  0E01               	movlw	1
  1097  0024A2  6E43               	movwf	?_vfpfcnvrt^0,c
  1098  0024A4  EF86  F012         	goto	l1274
  1099  0024A8                     l2510:
  1100                           
  1101                           ; BSR set to: 0
  1102                           ;C:\Program Files\Microchip\xc8\v2.31\pic\sources\c99\common\doprnt.c: 1379:         ++*
      +                          fmt;
  1103  0024A8  0060  F117  FFD9   	movff	vfpfcnvrt@fmt,fsr2l
  1104  0024AE  0060  F11B  FFDA   	movff	vfpfcnvrt@fmt+1,fsr2h
  1105  0024B4  2ADE               	incf	postinc2,f,c
  1106  0024B6  0E00               	movlw	0
  1107  0024B8  22DD               	addwfc	postdec2,f,c
  1108  0024BA                     
  1109                           ; BSR set to: 0
  1110                           ;C:\Program Files\Microchip\xc8\v2.31\pic\sources\c99\common\doprnt.c: 1380:         ret
      +                          urn 0;
  1111  0024BA  0E00               	movlw	0
  1112  0024BC  6E44               	movwf	(?_vfpfcnvrt+1)^0,c
  1113  0024BE  0E00               	movlw	0
  1114  0024C0  6E43               	movwf	?_vfpfcnvrt^0,c
  1115  0024C2  EF86  F012         	goto	l1274
  1116  0024C6                     l2516:
  1117                           
  1118                           ;C:\Program Files\Microchip\xc8\v2.31\pic\sources\c99\common\doprnt.c: 1384:     fputc((
      +                          int)(*fmt)[0], fp);
  1119  0024C6  0060  F117  FFD9   	movff	vfpfcnvrt@fmt,fsr2l
  1120  0024CC  0060  F11B  FFDA   	movff	vfpfcnvrt@fmt+1,fsr2h
  1121  0024D2  006F FF7B FFF6     	movff	postinc2,tblptrl
  1122  0024D8  006F FF77 FFF7     	movff	postdec2,tblptrh
  1123  0024DE                     	if	0	;tblptru may be non-zero
  1124  0024DE                     	endif
  1125  0024DE                     	if	1	;Program memory is > 0xFFFF, there are 3 active tblptr bytes
  1126  0024DE  0E00               	movlw	low (__mediumconst shr (0+16))
  1127  0024E0  6EF8               	movwf	tblptru,c
  1128  0024E2                     	endif
  1129  0024E2  0008               	tblrd		*
  1130  0024E4  50F5               	movf	tablat,w,c
  1131  0024E6  6E04               	movwf	fputc@c^0,c
  1132  0024E8  6A05               	clrf	(fputc@c+1)^0,c
  1133  0024EA  C043  F006         	movff	vfpfcnvrt@fp,fputc@fp
  1134  0024EE  C044  F007         	movff	vfpfcnvrt@fp+1,fputc@fp+1
  1135  0024F2  EC60  F014         	call	_fputc	;wreg free
  1136  0024F6                     
  1137                           ;C:\Program Files\Microchip\xc8\v2.31\pic\sources\c99\common\doprnt.c: 1385:     ++*fmt;
  1138  0024F6  0060  F117  FFD9   	movff	vfpfcnvrt@fmt,fsr2l
  1139  0024FC  0060  F11B  FFDA   	movff	vfpfcnvrt@fmt+1,fsr2h
  1140  002502  2ADE               	incf	postinc2,f,c
  1141  002504  0E00               	movlw	0
  1142  002506  22DD               	addwfc	postdec2,f,c
  1143  002508  EF4E  F012         	goto	l2506
  1144  00250C                     l1274:
  1145  00250C  0012               	return		;funcret
  1146  00250E                     __end_of_vfpfcnvrt:
  1147                           	callstack 0
  1148                           
  1149 ;; *************** function _dtoa *****************
  1150 ;; Defined at:
  1151 ;;		line 287 in file "C:\Program Files\Microchip\xc8\v2.31\pic\sources\c99\common\doprnt.c"
  1152 ;; Parameters:    Size  Location     Type
  1153 ;;  fp              2   30[COMRAM] PTR struct _IO_FILE
  1154 ;;		 -> NULL(0), 
  1155 ;;  d               8   32[COMRAM] long long 
  1156 ;; Auto vars:     Size  Location     Type
  1157 ;;  n               8   56[COMRAM] long long 
  1158 ;;  i               2   64[COMRAM] int 
  1159 ;;  s               2   54[COMRAM] int 
  1160 ;;  w               2   52[COMRAM] int 
  1161 ;;  p               2   50[COMRAM] int 
  1162 ;; Return value:  Size  Location     Type
  1163 ;;                  2   30[COMRAM] int 
  1164 ;; Registers used:
  1165 ;;		wreg, fsr1l, fsr1h, fsr2l, fsr2h, status,2, status,0, cstack
  1166 ;; Tracked objects:
  1167 ;;		On entry : 0/0
  1168 ;;		On exit  : 0/0
  1169 ;;		Unchanged: 0/0
  1170 ;; Data sizes:     COMRAM   BANK0   BANK1   BANK2   BANK3   BANK4   BANK5   BANK6   BANK7   BANK8   BANK9  BANK10  BANK1
      +1  BANK12  BANK13  BANK14  BANK15  BANK16  BANK17  BANK18  BANK19  BANK20  BANK21  BANK22  BANK23  BANK24  BANK25  BANK2
      +6  BANK27  BANK28  BANK29  BANK30  BANK31
  1171 ;;      Params:        10       0       0       0       0       0       0       0       0       0       0       0       
      +0       0       0       0       0       0       0       0       0       0       0       0       0       0       0       
      +0       0       0       0       0       0
  1172 ;;      Locals:        18       0       0       0       0       0       0       0       0       0       0       0       
      +0       0       0       0       0       0       0       0       0       0       0       0       0       0       0       
      +0       0       0       0       0       0
  1173 ;;      Temps:          8       0       0       0       0       0       0       0       0       0       0       0       
      +0       0       0       0       0       0       0       0       0       0       0       0       0       0       0       
      +0       0       0       0       0       0
  1174 ;;      Totals:        36       0       0       0       0       0       0       0       0       0       0       0       
      +0       0       0       0       0       0       0       0       0       0       0       0       0       0       0       
      +0       0       0       0       0       0
  1175 ;;Total ram usage:       36 bytes
  1176 ;; Hardware stack levels used:    1
  1177 ;; Hardware stack levels required when called:    8
  1178 ;; This function calls:
  1179 ;;		___aodiv
  1180 ;;		___aomod
  1181 ;;		_abs
  1182 ;;		_pad
  1183 ;; This function is called by:
  1184 ;;		_vfpfcnvrt
  1185 ;; This function uses a non-reentrant model
  1186 ;;
  1187                           
  1188                           	psect	text4
  1189  002016                     __ptext4:
  1190                           	callstack 0
  1191  002016                     _dtoa:
  1192                           	callstack 19
  1193  002016                     
  1194                           ;C:\Program Files\Microchip\xc8\v2.31\pic\sources\c99\common\doprnt.c: 287: static int d
      +                          toa(FILE *fp, long long d);C:\Program Files\Microchip\xc8\v2.31\pic\sources\c99\common\d
      +                          oprnt.c: 288: {;C:\Program Files\Microchip\xc8\v2.31\pic\sources\c99\common\doprnt.c: 28
      +                          9:     int i, p, s, w;;C:\Program Files\Microchip\xc8\v2.31\pic\sources\c99\common\doprn
      +                          t.c: 290:     long long n;;C:\Program Files\Microchip\xc8\v2.31\pic\sources\c99\common\d
      +                          oprnt.c: 293:     n = d;
  1195  002016  C021  F039         	movff	dtoa@d,dtoa@n
  1196  00201A  C022  F03A         	movff	dtoa@d+1,dtoa@n+1
  1197  00201E  C023  F03B         	movff	dtoa@d+2,dtoa@n+2
  1198  002022  C024  F03C         	movff	dtoa@d+3,dtoa@n+3
  1199  002026  C025  F03D         	movff	dtoa@d+4,dtoa@n+4
  1200  00202A  C026  F03E         	movff	dtoa@d+5,dtoa@n+5
  1201  00202E  C027  F03F         	movff	dtoa@d+6,dtoa@n+6
  1202  002032  C028  F040         	movff	dtoa@d+7,dtoa@n+7
  1203  002036                     
  1204                           ;C:\Program Files\Microchip\xc8\v2.31\pic\sources\c99\common\doprnt.c: 294:     s = n < 
      +                          0 ? 1 : 0;
  1205  002036  BE40               	btfsc	(dtoa@n+7)^0,7,c
  1206  002038  EF20  F010         	goto	u1511
  1207  00203C  EF23  F010         	goto	u1510
  1208  002040                     u1511:
  1209  002040  0E01               	movlw	1
  1210  002042  EF24  F010         	goto	u1520
  1211  002046                     u1510:
  1212  002046  0E00               	movlw	0
  1213  002048                     u1520:
  1214  002048  6E37               	movwf	dtoa@s^0,c
  1215  00204A  6A38               	clrf	(dtoa@s+1)^0,c
  1216                           
  1217                           ;C:\Program Files\Microchip\xc8\v2.31\pic\sources\c99\common\doprnt.c: 295:     if (s) {
  1218  00204C  5037               	movf	dtoa@s^0,w,c
  1219  00204E  1038               	iorwf	(dtoa@s+1)^0,w,c
  1220  002050  B4D8               	btfsc	status,2,c
  1221  002052  EF2D  F010         	goto	u1531
  1222  002056  EF2F  F010         	goto	u1530
  1223  00205A                     u1531:
  1224  00205A  EF3F  F010         	goto	l2418
  1225  00205E                     u1530:
  1226  00205E                     
  1227                           ;C:\Program Files\Microchip\xc8\v2.31\pic\sources\c99\common\doprnt.c: 296:         n = 
      +                          -n;
  1228  00205E  1E40               	comf	(dtoa@n+7)^0,f,c
  1229  002060  1E3F               	comf	(dtoa@n+6)^0,f,c
  1230  002062  1E3E               	comf	(dtoa@n+5)^0,f,c
  1231  002064  1E3D               	comf	(dtoa@n+4)^0,f,c
  1232  002066  1E3C               	comf	(dtoa@n+3)^0,f,c
  1233  002068  1E3B               	comf	(dtoa@n+2)^0,f,c
  1234  00206A  1E3A               	comf	(dtoa@n+1)^0,f,c
  1235  00206C  6C39               	negf	dtoa@n^0,c
  1236  00206E  0E00               	movlw	0
  1237  002070  223A               	addwfc	(dtoa@n+1)^0,f,c
  1238  002072  223B               	addwfc	(dtoa@n+2)^0,f,c
  1239  002074  223C               	addwfc	(dtoa@n+3)^0,f,c
  1240  002076  223D               	addwfc	(dtoa@n+4)^0,f,c
  1241  002078  223E               	addwfc	(dtoa@n+5)^0,f,c
  1242  00207A  223F               	addwfc	(dtoa@n+6)^0,f,c
  1243  00207C  2240               	addwfc	(dtoa@n+7)^0,f,c
  1244  00207E                     l2418:
  1245                           
  1246                           ;C:\Program Files\Microchip\xc8\v2.31\pic\sources\c99\common\doprnt.c: 300:     if (!(pr
      +                          ec < 0)) {
  1247  00207E  0100               	movlb	0	; () banked
  1248  002080  BF65               	btfsc	(_prec+1)& (0+255),7,b
  1249  002082  EF45  F010         	goto	u1541
  1250  002086  EF47  F010         	goto	u1540
  1251  00208A                     u1541:
  1252  00208A  EF48  F010         	goto	l2422
  1253  00208E                     u1540:
  1254  00208E                     
  1255                           ; BSR set to: 0
  1256                           ;C:\Program Files\Microchip\xc8\v2.31\pic\sources\c99\common\doprnt.c: 301:         flag
      +                          s &= ~(1 << 1);
  1257  00208E  9366               	bcf	_flags& (0+255),1,b
  1258  002090                     l2422:
  1259                           
  1260                           ; BSR set to: 0
  1261                           ;C:\Program Files\Microchip\xc8\v2.31\pic\sources\c99\common\doprnt.c: 303:     p = (0 <
      +                           prec) ? prec : 1;
  1262  002090  BF65               	btfsc	(_prec+1)& (0+255),7,b
  1263  002092  EF55  F010         	goto	u1550
  1264  002096  5165               	movf	(_prec+1)& (0+255),w,b
  1265  002098  E106               	bnz	u1551
  1266  00209A  0564               	decf	_prec& (0+255),w,b
  1267  00209C  B0D8               	btfsc	status,0,c
  1268  00209E  EF53  F010         	goto	u1551
  1269  0020A2  EF55  F010         	goto	u1550
  1270  0020A6                     u1551:
  1271  0020A6  EF5B  F010         	goto	l1247
  1272  0020AA                     u1550:
  1273  0020AA                     
  1274                           ; BSR set to: 0
  1275  0020AA  0E00               	movlw	0
  1276  0020AC  6E34               	movwf	(dtoa@p+1)^0,c
  1277  0020AE  0E01               	movlw	1
  1278  0020B0  6E33               	movwf	dtoa@p^0,c
  1279  0020B2  EF5F  F010         	goto	l1249
  1280  0020B6                     l1247:
  1281                           
  1282                           ; BSR set to: 0
  1283  0020B6  C064  F033         	movff	_prec,dtoa@p
  1284  0020BA  C065  F034         	movff	_prec+1,dtoa@p+1
  1285  0020BE                     l1249:
  1286                           
  1287                           ; BSR set to: 0
  1288                           ;C:\Program Files\Microchip\xc8\v2.31\pic\sources\c99\common\doprnt.c: 304:     w = widt
      +                          h;
  1289  0020BE  C062  F035         	movff	_width,dtoa@w
  1290  0020C2  C063  F036         	movff	_width+1,dtoa@w+1
  1291  0020C6                     
  1292                           ; BSR set to: 0
  1293                           ;C:\Program Files\Microchip\xc8\v2.31\pic\sources\c99\common\doprnt.c: 305:     if (s ||
      +                           (flags & (1 << 2))) {
  1294  0020C6  5037               	movf	dtoa@s^0,w,c
  1295  0020C8  1038               	iorwf	(dtoa@s+1)^0,w,c
  1296  0020CA  A4D8               	btfss	status,2,c
  1297  0020CC  EF6A  F010         	goto	u1561
  1298  0020D0  EF6C  F010         	goto	u1560
  1299  0020D4                     u1561:
  1300  0020D4  EF73  F010         	goto	l2430
  1301  0020D8                     u1560:
  1302  0020D8                     
  1303                           ; BSR set to: 0
  1304  0020D8  A566               	btfss	_flags& (0+255),2,b
  1305  0020DA  EF71  F010         	goto	u1571
  1306  0020DE  EF73  F010         	goto	u1570
  1307  0020E2                     u1571:
  1308  0020E2  EF76  F010         	goto	l2432
  1309  0020E6                     u1570:
  1310  0020E6                     l2430:
  1311                           
  1312                           ; BSR set to: 0
  1313                           ;C:\Program Files\Microchip\xc8\v2.31\pic\sources\c99\common\doprnt.c: 306:         --w;
  1314  0020E6  0635               	decf	dtoa@w^0,f,c
  1315  0020E8  A0D8               	btfss	status,0,c
  1316  0020EA  0636               	decf	(dtoa@w+1)^0,f,c
  1317  0020EC                     l2432:
  1318                           
  1319                           ; BSR set to: 0
  1320                           ;C:\Program Files\Microchip\xc8\v2.31\pic\sources\c99\common\doprnt.c: 310:     i = size
      +                          of(dbuf) - 1;
  1321  0020EC  0E00               	movlw	0
  1322  0020EE  6E42               	movwf	(dtoa@i+1)^0,c
  1323  0020F0  0E1F               	movlw	31
  1324  0020F2  6E41               	movwf	dtoa@i^0,c
  1325  0020F4                     
  1326                           ; BSR set to: 0
  1327                           ;C:\Program Files\Microchip\xc8\v2.31\pic\sources\c99\common\doprnt.c: 311:     dbuf[i] 
      +                          = '\0';
  1328  0020F4  0E00               	movlw	0
  1329  0020F6  6F87               	movwf	(_dbuf+31)& (0+255),b
  1330                           
  1331                           ;C:\Program Files\Microchip\xc8\v2.31\pic\sources\c99\common\doprnt.c: 312:     while (!
      +                          (i < 1) && (n || (0 < p) || ((0 < w) && (flags & (1 << 1))))) {
  1332  0020F8  EFFA  F010         	goto	l2446
  1333  0020FC                     l2436:
  1334                           
  1335                           ;C:\Program Files\Microchip\xc8\v2.31\pic\sources\c99\common\doprnt.c: 313:         --i;
  1336  0020FC  0641               	decf	dtoa@i^0,f,c
  1337  0020FE  A0D8               	btfss	status,0,c
  1338  002100  0642               	decf	(dtoa@i+1)^0,f,c
  1339  002102                     
  1340                           ;C:\Program Files\Microchip\xc8\v2.31\pic\sources\c99\common\doprnt.c: 314:         dbuf
      +                          [i] = (char)((int)'0' + abs(n % 10));
  1341  002102  0E68               	movlw	low _dbuf
  1342  002104  2441               	addwf	dtoa@i^0,w,c
  1343  002106  6ED9               	movwf	fsr2l,c
  1344  002108  0E00               	movlw	high _dbuf
  1345  00210A  2042               	addwfc	(dtoa@i+1)^0,w,c
  1346  00210C  6EDA               	movwf	fsr2h,c
  1347  00210E  C039  F002         	movff	dtoa@n,___aomod@dividend
  1348  002112  C03A  F003         	movff	dtoa@n+1,___aomod@dividend+1
  1349  002116  C03B  F004         	movff	dtoa@n+2,___aomod@dividend+2
  1350  00211A  C03C  F005         	movff	dtoa@n+3,___aomod@dividend+3
  1351  00211E  C03D  F006         	movff	dtoa@n+4,___aomod@dividend+4
  1352  002122  C03E  F007         	movff	dtoa@n+5,___aomod@dividend+5
  1353  002126  C03F  F008         	movff	dtoa@n+6,___aomod@dividend+6
  1354  00212A  C040  F009         	movff	dtoa@n+7,___aomod@dividend+7
  1355  00212E  0E0A               	movlw	10
  1356  002130  6E0A               	movwf	___aomod@divisor^0,c
  1357  002132  0E00               	movlw	0
  1358  002134  6E0B               	movwf	(___aomod@divisor+1)^0,c
  1359  002136  0E00               	movlw	0
  1360  002138  6E0C               	movwf	(___aomod@divisor+2)^0,c
  1361  00213A  0E00               	movlw	0
  1362  00213C  6E0D               	movwf	(___aomod@divisor+3)^0,c
  1363  00213E  0E00               	movlw	0
  1364  002140  6E0E               	movwf	(___aomod@divisor+4)^0,c
  1365  002142  0E00               	movlw	0
  1366  002144  6E0F               	movwf	(___aomod@divisor+5)^0,c
  1367  002146  0E00               	movlw	0
  1368  002148  6E10               	movwf	(___aomod@divisor+6)^0,c
  1369  00214A  0E00               	movlw	0
  1370  00214C  6E11               	movwf	(___aomod@divisor+7)^0,c
  1371  00214E  EC4B  F013         	call	___aomod	;wreg free
  1372  002152  C002  F029         	movff	?___aomod,??_dtoa
  1373  002156  C003  F02A         	movff	?___aomod+1,??_dtoa+1
  1374  00215A  C004  F02B         	movff	?___aomod+2,??_dtoa+2
  1375  00215E  C005  F02C         	movff	?___aomod+3,??_dtoa+3
  1376  002162  C006  F02D         	movff	?___aomod+4,??_dtoa+4
  1377  002166  C007  F02E         	movff	?___aomod+5,??_dtoa+5
  1378  00216A  C008  F02F         	movff	?___aomod+6,??_dtoa+6
  1379  00216E  C009  F030         	movff	?___aomod+7,??_dtoa+7
  1380  002172  C029  F014         	movff	??_dtoa,abs@a
  1381  002176  C02B  F015         	movff	??_dtoa+2,abs@a+1
  1382  00217A  EC28  F016         	call	_abs	;wreg free
  1383  00217E  5014               	movf	?_abs^0,w,c
  1384  002180  0F30               	addlw	48
  1385  002182  6EDF               	movwf	indf2,c
  1386  002184                     
  1387                           ;C:\Program Files\Microchip\xc8\v2.31\pic\sources\c99\common\doprnt.c: 315:         --p;
  1388  002184  0633               	decf	dtoa@p^0,f,c
  1389  002186  A0D8               	btfss	status,0,c
  1390  002188  0634               	decf	(dtoa@p+1)^0,f,c
  1391  00218A                     
  1392                           ;C:\Program Files\Microchip\xc8\v2.31\pic\sources\c99\common\doprnt.c: 316:         --w;
  1393  00218A  0635               	decf	dtoa@w^0,f,c
  1394  00218C  A0D8               	btfss	status,0,c
  1395  00218E  0636               	decf	(dtoa@w+1)^0,f,c
  1396  002190                     
  1397                           ;C:\Program Files\Microchip\xc8\v2.31\pic\sources\c99\common\doprnt.c: 317:         n = 
      +                          n / 10;
  1398  002190  C039  F002         	movff	dtoa@n,___aodiv@dividend
  1399  002194  C03A  F003         	movff	dtoa@n+1,___aodiv@dividend+1
  1400  002198  C03B  F004         	movff	dtoa@n+2,___aodiv@dividend+2
  1401  00219C  C03C  F005         	movff	dtoa@n+3,___aodiv@dividend+3
  1402  0021A0  C03D  F006         	movff	dtoa@n+4,___aodiv@dividend+4
  1403  0021A4  C03E  F007         	movff	dtoa@n+5,___aodiv@dividend+5
  1404  0021A8  C03F  F008         	movff	dtoa@n+6,___aodiv@dividend+6
  1405  0021AC  C040  F009         	movff	dtoa@n+7,___aodiv@dividend+7
  1406  0021B0  0E0A               	movlw	10
  1407  0021B2  6E0A               	movwf	___aodiv@divisor^0,c
  1408  0021B4  0E00               	movlw	0
  1409  0021B6  6E0B               	movwf	(___aodiv@divisor+1)^0,c
  1410  0021B8  0E00               	movlw	0
  1411  0021BA  6E0C               	movwf	(___aodiv@divisor+2)^0,c
  1412  0021BC  0E00               	movlw	0
  1413  0021BE  6E0D               	movwf	(___aodiv@divisor+3)^0,c
  1414  0021C0  0E00               	movlw	0
  1415  0021C2  6E0E               	movwf	(___aodiv@divisor+4)^0,c
  1416  0021C4  0E00               	movlw	0
  1417  0021C6  6E0F               	movwf	(___aodiv@divisor+5)^0,c
  1418  0021C8  0E00               	movlw	0
  1419  0021CA  6E10               	movwf	(___aodiv@divisor+6)^0,c
  1420  0021CC  0E00               	movlw	0
  1421  0021CE  6E11               	movwf	(___aodiv@divisor+7)^0,c
  1422  0021D0  EC87  F012         	call	___aodiv	;wreg free
  1423  0021D4  C002  F039         	movff	?___aodiv,dtoa@n
  1424  0021D8  C003  F03A         	movff	?___aodiv+1,dtoa@n+1
  1425  0021DC  C004  F03B         	movff	?___aodiv+2,dtoa@n+2
  1426  0021E0  C005  F03C         	movff	?___aodiv+3,dtoa@n+3
  1427  0021E4  C006  F03D         	movff	?___aodiv+4,dtoa@n+4
  1428  0021E8  C007  F03E         	movff	?___aodiv+5,dtoa@n+5
  1429  0021EC  C008  F03F         	movff	?___aodiv+6,dtoa@n+6
  1430  0021F0  C009  F040         	movff	?___aodiv+7,dtoa@n+7
  1431  0021F4                     l2446:
  1432                           
  1433                           ;C:\Program Files\Microchip\xc8\v2.31\pic\sources\c99\common\doprnt.c: 312:     while (!
      +                          (i < 1) && (n || (0 < p) || ((0 < w) && (flags & (1 << 1))))) {
  1434  0021F4  BE42               	btfsc	(dtoa@i+1)^0,7,c
  1435  0021F6  EF05  F011         	goto	u1581
  1436  0021FA  5042               	movf	(dtoa@i+1)^0,w,c
  1437  0021FC  E108               	bnz	u1580
  1438  0021FE  0441               	decf	dtoa@i^0,w,c
  1439  002200  A0D8               	btfss	status,0,c
  1440  002202  EF05  F011         	goto	u1581
  1441  002206  EF07  F011         	goto	u1580
  1442  00220A                     u1581:
  1443  00220A  EF38  F011         	goto	l2456
  1444  00220E                     u1580:
  1445  00220E  5039               	movf	dtoa@n^0,w,c
  1446  002210  103A               	iorwf	(dtoa@n+1)^0,w,c
  1447  002212  103B               	iorwf	(dtoa@n+2)^0,w,c
  1448  002214  103C               	iorwf	(dtoa@n+3)^0,w,c
  1449  002216  103D               	iorwf	(dtoa@n+4)^0,w,c
  1450  002218  103E               	iorwf	(dtoa@n+5)^0,w,c
  1451  00221A  103F               	iorwf	(dtoa@n+6)^0,w,c
  1452  00221C  1040               	iorwf	(dtoa@n+7)^0,w,c
  1453  00221E  A4D8               	btfss	status,2,c
  1454  002220  EF14  F011         	goto	u1591
  1455  002224  EF16  F011         	goto	u1590
  1456  002228                     u1591:
  1457  002228  EF7E  F010         	goto	l2436
  1458  00222C                     u1590:
  1459  00222C  BE34               	btfsc	(dtoa@p+1)^0,7,c
  1460  00222E  EF23  F011         	goto	u1600
  1461  002232  5034               	movf	(dtoa@p+1)^0,w,c
  1462  002234  E106               	bnz	u1601
  1463  002236  0433               	decf	dtoa@p^0,w,c
  1464  002238  B0D8               	btfsc	status,0,c
  1465  00223A  EF21  F011         	goto	u1601
  1466  00223E  EF23  F011         	goto	u1600
  1467  002242                     u1601:
  1468  002242  EF7E  F010         	goto	l2436
  1469  002246                     u1600:
  1470  002246  BE36               	btfsc	(dtoa@w+1)^0,7,c
  1471  002248  EF2E  F011         	goto	u1611
  1472  00224C  5036               	movf	(dtoa@w+1)^0,w,c
  1473  00224E  E108               	bnz	u1610
  1474  002250  0435               	decf	dtoa@w^0,w,c
  1475  002252  A0D8               	btfss	status,0,c
  1476  002254  EF2E  F011         	goto	u1611
  1477  002258  EF30  F011         	goto	u1610
  1478  00225C                     u1611:
  1479  00225C  EF38  F011         	goto	l2456
  1480  002260                     u1610:
  1481  002260  0100               	movlb	0	; () banked
  1482  002262  B366               	btfsc	_flags& (0+255),1,b
  1483  002264  EF36  F011         	goto	u1621
  1484  002268  EF38  F011         	goto	u1620
  1485  00226C                     u1621:
  1486  00226C  EF7E  F010         	goto	l2436
  1487  002270                     u1620:
  1488  002270                     l2456:
  1489                           
  1490                           ;C:\Program Files\Microchip\xc8\v2.31\pic\sources\c99\common\doprnt.c: 321:     if (s ||
      +                           (flags & (1 << 2))) {
  1491  002270  5037               	movf	dtoa@s^0,w,c
  1492  002272  1038               	iorwf	(dtoa@s+1)^0,w,c
  1493  002274  A4D8               	btfss	status,2,c
  1494  002276  EF3F  F011         	goto	u1631
  1495  00227A  EF41  F011         	goto	u1630
  1496  00227E                     u1631:
  1497  00227E  EF49  F011         	goto	l2460
  1498  002282                     u1630:
  1499  002282  0100               	movlb	0	; () banked
  1500  002284  A566               	btfss	_flags& (0+255),2,b
  1501  002286  EF47  F011         	goto	u1641
  1502  00228A  EF49  F011         	goto	u1640
  1503  00228E                     u1641:
  1504  00228E  EF68  F011         	goto	l2470
  1505  002292                     u1640:
  1506  002292                     l2460:
  1507                           
  1508                           ;C:\Program Files\Microchip\xc8\v2.31\pic\sources\c99\common\doprnt.c: 322:         --i;
  1509  002292  0641               	decf	dtoa@i^0,f,c
  1510  002294  A0D8               	btfss	status,0,c
  1511  002296  0642               	decf	(dtoa@i+1)^0,f,c
  1512  002298                     
  1513                           ;C:\Program Files\Microchip\xc8\v2.31\pic\sources\c99\common\doprnt.c: 323:         dbuf
      +                          [i] = s ? '-' : '+';
  1514  002298  5037               	movf	dtoa@s^0,w,c
  1515  00229A  1038               	iorwf	(dtoa@s+1)^0,w,c
  1516  00229C  A4D8               	btfss	status,2,c
  1517  00229E  EF53  F011         	goto	u1651
  1518  0022A2  EF55  F011         	goto	u1650
  1519  0022A6                     u1651:
  1520  0022A6  EF5B  F011         	goto	l2466
  1521  0022AA                     u1650:
  1522  0022AA  0E00               	movlw	0
  1523  0022AC  6E32               	movwf	(_dtoa$1626+1)^0,c
  1524  0022AE  0E2B               	movlw	43
  1525  0022B0  6E31               	movwf	_dtoa$1626^0,c
  1526  0022B2  EF5F  F011         	goto	l2468
  1527  0022B6                     l2466:
  1528  0022B6  0E00               	movlw	0
  1529  0022B8  6E32               	movwf	(_dtoa$1626+1)^0,c
  1530  0022BA  0E2D               	movlw	45
  1531  0022BC  6E31               	movwf	_dtoa$1626^0,c
  1532  0022BE                     l2468:
  1533  0022BE  0E68               	movlw	low _dbuf
  1534  0022C0  2441               	addwf	dtoa@i^0,w,c
  1535  0022C2  6ED9               	movwf	fsr2l,c
  1536  0022C4  0E00               	movlw	high _dbuf
  1537  0022C6  2042               	addwfc	(dtoa@i+1)^0,w,c
  1538  0022C8  6EDA               	movwf	fsr2h,c
  1539  0022CA  0060  F0C7  FFDF   	movff	_dtoa$1626,indf2
  1540  0022D0                     l2470:
  1541                           
  1542                           ;C:\Program Files\Microchip\xc8\v2.31\pic\sources\c99\common\doprnt.c: 327:     return p
      +                          ad(fp, &dbuf[i], w);
  1543  0022D0  C01F  F014         	movff	dtoa@fp,pad@fp
  1544  0022D4  C020  F015         	movff	dtoa@fp+1,pad@fp+1
  1545  0022D8  0E68               	movlw	low _dbuf
  1546  0022DA  2441               	addwf	dtoa@i^0,w,c
  1547  0022DC  6E16               	movwf	pad@buf^0,c
  1548  0022DE  0E00               	movlw	high _dbuf
  1549  0022E0  2042               	addwfc	(dtoa@i+1)^0,w,c
  1550  0022E2  6E17               	movwf	(pad@buf+1)^0,c
  1551  0022E4  C035  F018         	movff	dtoa@w,pad@p
  1552  0022E8  C036  F019         	movff	dtoa@w+1,pad@p+1
  1553  0022EC  ECFD  F013         	call	_pad	;wreg free
  1554  0022F0  C014  F01F         	movff	?_pad,?_dtoa
  1555  0022F4  C015  F020         	movff	?_pad+1,?_dtoa+1
  1556  0022F8  0012               	return		;funcret
  1557  0022FA                     __end_of_dtoa:
  1558                           	callstack 0
  1559                           
  1560 ;; *************** function _pad *****************
  1561 ;; Defined at:
  1562 ;;		line 72 in file "C:\Program Files\Microchip\xc8\v2.31\pic\sources\c99\common\doprnt.c"
  1563 ;; Parameters:    Size  Location     Type
  1564 ;;  fp              2   19[COMRAM] PTR struct _IO_FILE
  1565 ;;		 -> NULL(0), 
  1566 ;;  buf             2   21[COMRAM] PTR unsigned char 
  1567 ;;		 -> dbuf(32), 
  1568 ;;  p               2   23[COMRAM] int 
  1569 ;; Auto vars:     Size  Location     Type
  1570 ;;  w               2   28[COMRAM] int 
  1571 ;;  i               2   26[COMRAM] int 
  1572 ;; Return value:  Size  Location     Type
  1573 ;;                  2   19[COMRAM] int 
  1574 ;; Registers used:
  1575 ;;		wreg, fsr1l, fsr1h, fsr2l, fsr2h, status,2, status,0, cstack
  1576 ;; Tracked objects:
  1577 ;;		On entry : 0/0
  1578 ;;		On exit  : 0/0
  1579 ;;		Unchanged: 0/0
  1580 ;; Data sizes:     COMRAM   BANK0   BANK1   BANK2   BANK3   BANK4   BANK5   BANK6   BANK7   BANK8   BANK9  BANK10  BANK1
      +1  BANK12  BANK13  BANK14  BANK15  BANK16  BANK17  BANK18  BANK19  BANK20  BANK21  BANK22  BANK23  BANK24  BANK25  BANK2
      +6  BANK27  BANK28  BANK29  BANK30  BANK31
  1581 ;;      Params:         6       0       0       0       0       0       0       0       0       0       0       0       
      +0       0       0       0       0       0       0       0       0       0       0       0       0       0       0       
      +0       0       0       0       0       0
  1582 ;;      Locals:         4       0       0       0       0       0       0       0       0       0       0       0       
      +0       0       0       0       0       0       0       0       0       0       0       0       0       0       0       
      +0       0       0       0       0       0
  1583 ;;      Temps:          1       0       0       0       0       0       0       0       0       0       0       0       
      +0       0       0       0       0       0       0       0       0       0       0       0       0       0       0       
      +0       0       0       0       0       0
  1584 ;;      Totals:        11       0       0       0       0       0       0       0       0       0       0       0       
      +0       0       0       0       0       0       0       0       0       0       0       0       0       0       0       
      +0       0       0       0       0       0
  1585 ;;Total ram usage:       11 bytes
  1586 ;; Hardware stack levels used:    1
  1587 ;; Hardware stack levels required when called:    7
  1588 ;; This function calls:
  1589 ;;		_fputc
  1590 ;;		_fputs
  1591 ;;		_strlen
  1592 ;; This function is called by:
  1593 ;;		_dtoa
  1594 ;; This function uses a non-reentrant model
  1595 ;;
  1596                           
  1597                           	psect	text5
  1598  0027FA                     __ptext5:
  1599                           	callstack 0
  1600  0027FA                     _pad:
  1601                           	callstack 19
  1602  0027FA                     
  1603                           ;C:\Program Files\Microchip\xc8\v2.31\pic\sources\c99\common\doprnt.c: 72: static int pa
      +                          d(FILE *fp, char *buf, int p);C:\Program Files\Microchip\xc8\v2.31\pic\sources\c99\commo
      +                          n\doprnt.c: 73: {;C:\Program Files\Microchip\xc8\v2.31\pic\sources\c99\common\doprnt.c: 
      +                          74:     int i, w;;C:\Program Files\Microchip\xc8\v2.31\pic\sources\c99\common\doprnt.c: 
      +                          77:     if (flags & (1 << 0)) {
  1604  0027FA  0100               	movlb	0	; () banked
  1605  0027FC  A166               	btfss	_flags& (0+255),0,b
  1606  0027FE  EF03  F014         	goto	u1461
  1607  002802  EF05  F014         	goto	u1460
  1608  002806                     u1461:
  1609  002806  EF0F  F014         	goto	l2390
  1610  00280A                     u1460:
  1611  00280A                     
  1612                           ; BSR set to: 0
  1613                           ;C:\Program Files\Microchip\xc8\v2.31\pic\sources\c99\common\doprnt.c: 78:         fputs
      +                          ((const char *)buf, fp);
  1614  00280A  C016  F00D         	movff	pad@buf,fputs@s
  1615  00280E  C017  F00E         	movff	pad@buf+1,fputs@s+1
  1616  002812  C014  F00F         	movff	pad@fp,fputs@fp
  1617  002816  C015  F010         	movff	pad@fp+1,fputs@fp+1
  1618  00281A  EC06  F016         	call	_fputs	;wreg free
  1619  00281E                     l2390:
  1620                           
  1621                           ;C:\Program Files\Microchip\xc8\v2.31\pic\sources\c99\common\doprnt.c: 82:     w = (p < 
      +                          0) ? 0 : p;
  1622  00281E  BE19               	btfsc	(pad@p+1)^0,7,c
  1623  002820  EF14  F014         	goto	u1471
  1624  002824  EF16  F014         	goto	u1470
  1625  002828                     u1471:
  1626  002828  EF1C  F014         	goto	l2394
  1627  00282C                     u1470:
  1628  00282C  C018  F01D         	movff	pad@p,pad@w
  1629  002830  C019  F01E         	movff	pad@p+1,pad@w+1
  1630  002834  EF20  F014         	goto	l1236
  1631  002838                     l2394:
  1632  002838  0E00               	movlw	0
  1633  00283A  6E1E               	movwf	(pad@w+1)^0,c
  1634  00283C  0E00               	movlw	0
  1635  00283E  6E1D               	movwf	pad@w^0,c
  1636  002840                     l1236:
  1637                           
  1638                           ;C:\Program Files\Microchip\xc8\v2.31\pic\sources\c99\common\doprnt.c: 83:     i = 0;
  1639  002840  0E00               	movlw	0
  1640  002842  6E1C               	movwf	(pad@i+1)^0,c
  1641  002844  0E00               	movlw	0
  1642  002846  6E1B               	movwf	pad@i^0,c
  1643                           
  1644                           ;C:\Program Files\Microchip\xc8\v2.31\pic\sources\c99\common\doprnt.c: 84:     while (i 
      +                          < w) {
  1645  002848  EF32  F014         	goto	l2400
  1646  00284C                     l2396:
  1647                           
  1648                           ;C:\Program Files\Microchip\xc8\v2.31\pic\sources\c99\common\doprnt.c: 85:         fputc
      +                          (' ', fp);
  1649  00284C  0E00               	movlw	0
  1650  00284E  6E05               	movwf	(fputc@c+1)^0,c
  1651  002850  0E20               	movlw	32
  1652  002852  6E04               	movwf	fputc@c^0,c
  1653  002854  C014  F006         	movff	pad@fp,fputc@fp
  1654  002858  C015  F007         	movff	pad@fp+1,fputc@fp+1
  1655  00285C  EC60  F014         	call	_fputc	;wreg free
  1656  002860                     
  1657                           ;C:\Program Files\Microchip\xc8\v2.31\pic\sources\c99\common\doprnt.c: 86:         ++i;
  1658  002860  4A1B               	infsnz	pad@i^0,f,c
  1659  002862  2A1C               	incf	(pad@i+1)^0,f,c
  1660  002864                     l2400:
  1661                           
  1662                           ;C:\Program Files\Microchip\xc8\v2.31\pic\sources\c99\common\doprnt.c: 84:     while (i 
      +                          < w) {
  1663  002864  501D               	movf	pad@w^0,w,c
  1664  002866  5C1B               	subwf	pad@i^0,w,c
  1665  002868  501C               	movf	(pad@i+1)^0,w,c
  1666  00286A  0A80               	xorlw	128
  1667  00286C  6E1A               	movwf	??_pad^0,c
  1668  00286E  501E               	movf	(pad@w+1)^0,w,c
  1669  002870  0A80               	xorlw	128
  1670  002872  581A               	subwfb	??_pad^0,w,c
  1671  002874  A0D8               	btfss	status,0,c
  1672  002876  EF3F  F014         	goto	u1481
  1673  00287A  EF41  F014         	goto	u1480
  1674  00287E                     u1481:
  1675  00287E  EF26  F014         	goto	l2396
  1676  002882                     u1480:
  1677  002882                     
  1678                           ;C:\Program Files\Microchip\xc8\v2.31\pic\sources\c99\common\doprnt.c: 90:     if (!(fla
      +                          gs & (1 << 0))) {
  1679  002882  0100               	movlb	0	; () banked
  1680  002884  B166               	btfsc	_flags& (0+255),0,b
  1681  002886  EF47  F014         	goto	u1491
  1682  00288A  EF49  F014         	goto	u1490
  1683  00288E                     u1491:
  1684  00288E  EF53  F014         	goto	l2404
  1685  002892                     u1490:
  1686  002892                     
  1687                           ; BSR set to: 0
  1688                           ;C:\Program Files\Microchip\xc8\v2.31\pic\sources\c99\common\doprnt.c: 91:         fputs
      +                          ((const char *)buf, fp);
  1689  002892  C016  F00D         	movff	pad@buf,fputs@s
  1690  002896  C017  F00E         	movff	pad@buf+1,fputs@s+1
  1691  00289A  C014  F00F         	movff	pad@fp,fputs@fp
  1692  00289E  C015  F010         	movff	pad@fp+1,fputs@fp+1
  1693  0028A2  EC06  F016         	call	_fputs	;wreg free
  1694  0028A6                     l2404:
  1695                           
  1696                           ;C:\Program Files\Microchip\xc8\v2.31\pic\sources\c99\common\doprnt.c: 94:     return (i
      +                          nt)(strlen(buf) + (size_t)w);
  1697  0028A6  C016  F002         	movff	pad@buf,strlen@s
  1698  0028AA  C017  F003         	movff	pad@buf+1,strlen@s+1
  1699  0028AE  EC48  F016         	call	_strlen	;wreg free
  1700  0028B2  501D               	movf	pad@w^0,w,c
  1701  0028B4  2402               	addwf	?_strlen^0,w,c
  1702  0028B6  6E14               	movwf	?_pad^0,c
  1703  0028B8  501E               	movf	(pad@w+1)^0,w,c
  1704  0028BA  2003               	addwfc	(?_strlen+1)^0,w,c
  1705  0028BC  6E15               	movwf	(?_pad+1)^0,c
  1706  0028BE  0012               	return		;funcret
  1707  0028C0                     __end_of_pad:
  1708                           	callstack 0
  1709                           
  1710 ;; *************** function _strlen *****************
  1711 ;; Defined at:
  1712 ;;		line 5 in file "C:\Program Files\Microchip\xc8\v2.31\pic\sources\c99\common\strlen.c"
  1713 ;; Parameters:    Size  Location     Type
  1714 ;;  s               2    1[COMRAM] PTR const unsigned char 
  1715 ;;		 -> dbuf(32), 
  1716 ;; Auto vars:     Size  Location     Type
  1717 ;;  a               2    3[COMRAM] PTR const unsigned char 
  1718 ;;		 -> dbuf(32), 
  1719 ;; Return value:  Size  Location     Type
  1720 ;;                  2    1[COMRAM] unsigned int 
  1721 ;; Registers used:
  1722 ;;		wreg, fsr2l, fsr2h, status,2, status,0
  1723 ;; Tracked objects:
  1724 ;;		On entry : 0/0
  1725 ;;		On exit  : 0/0
  1726 ;;		Unchanged: 0/0
  1727 ;; Data sizes:     COMRAM   BANK0   BANK1   BANK2   BANK3   BANK4   BANK5   BANK6   BANK7   BANK8   BANK9  BANK10  BANK1
      +1  BANK12  BANK13  BANK14  BANK15  BANK16  BANK17  BANK18  BANK19  BANK20  BANK21  BANK22  BANK23  BANK24  BANK25  BANK2
      +6  BANK27  BANK28  BANK29  BANK30  BANK31
  1728 ;;      Params:         2       0       0       0       0       0       0       0       0       0       0       0       
      +0       0       0       0       0       0       0       0       0       0       0       0       0       0       0       
      +0       0       0       0       0       0
  1729 ;;      Locals:         2       0       0       0       0       0       0       0       0       0       0       0       
      +0       0       0       0       0       0       0       0       0       0       0       0       0       0       0       
      +0       0       0       0       0       0
  1730 ;;      Temps:          0       0       0       0       0       0       0       0       0       0       0       0       
      +0       0       0       0       0       0       0       0       0       0       0       0       0       0       0       
      +0       0       0       0       0       0
  1731 ;;      Totals:         4       0       0       0       0       0       0       0       0       0       0       0       
      +0       0       0       0       0       0       0       0       0       0       0       0       0       0       0       
      +0       0       0       0       0       0
  1732 ;;Total ram usage:        4 bytes
  1733 ;; Hardware stack levels used:    1
  1734 ;; Hardware stack levels required when called:    3
  1735 ;; This function calls:
  1736 ;;		Nothing
  1737 ;; This function is called by:
  1738 ;;		_pad
  1739 ;; This function uses a non-reentrant model
  1740 ;;
  1741                           
  1742                           	psect	text6
  1743  002C90                     __ptext6:
  1744                           	callstack 0
  1745  002C90                     _strlen:
  1746                           	callstack 22
  1747  002C90  C002  F004         	movff	strlen@s,strlen@a
  1748  002C94  C003  F005         	movff	strlen@s+1,strlen@a+1
  1749  002C98  EF50  F016         	goto	l2300
  1750  002C9C                     l2298:
  1751  002C9C  4A02               	infsnz	strlen@s^0,f,c
  1752  002C9E  2A03               	incf	(strlen@s+1)^0,f,c
  1753  002CA0                     l2300:
  1754  002CA0  0060  F00B  FFD9   	movff	strlen@s,fsr2l
  1755  002CA6  0060  F00F  FFDA   	movff	strlen@s+1,fsr2h
  1756  002CAC  50DF               	movf	indf2,w,c
  1757  002CAE  A4D8               	btfss	status,2,c
  1758  002CB0  EF5C  F016         	goto	u1321
  1759  002CB4  EF5E  F016         	goto	u1320
  1760  002CB8                     u1321:
  1761  002CB8  EF4E  F016         	goto	l2298
  1762  002CBC                     u1320:
  1763  002CBC  5004               	movf	strlen@a^0,w,c
  1764  002CBE  5C02               	subwf	strlen@s^0,w,c
  1765  002CC0  6E02               	movwf	?_strlen^0,c
  1766  002CC2  5005               	movf	(strlen@a+1)^0,w,c
  1767  002CC4  5803               	subwfb	(strlen@s+1)^0,w,c
  1768  002CC6  6E03               	movwf	(?_strlen+1)^0,c
  1769  002CC8  0012               	return		;funcret
  1770  002CCA                     __end_of_strlen:
  1771                           	callstack 0
  1772                           
  1773 ;; *************** function _fputs *****************
  1774 ;; Defined at:
  1775 ;;		line 8 in file "C:\Program Files\Microchip\xc8\v2.31\pic\sources\c99\common\nf_fputs.c"
  1776 ;; Parameters:    Size  Location     Type
  1777 ;;  s               2   12[COMRAM] PTR const unsigned char 
  1778 ;;		 -> dbuf(32), 
  1779 ;;  fp              2   14[COMRAM] PTR struct _IO_FILE
  1780 ;;		 -> NULL(0), 
  1781 ;; Auto vars:     Size  Location     Type
  1782 ;;  i               2   17[COMRAM] int 
  1783 ;;  c               1   16[COMRAM] unsigned char 
  1784 ;; Return value:  Size  Location     Type
  1785 ;;                  2   12[COMRAM] int 
  1786 ;; Registers used:
  1787 ;;		wreg, fsr1l, fsr1h, fsr2l, fsr2h, status,2, status,0, cstack
  1788 ;; Tracked objects:
  1789 ;;		On entry : 0/0
  1790 ;;		On exit  : 0/0
  1791 ;;		Unchanged: 0/0
  1792 ;; Data sizes:     COMRAM   BANK0   BANK1   BANK2   BANK3   BANK4   BANK5   BANK6   BANK7   BANK8   BANK9  BANK10  BANK1
      +1  BANK12  BANK13  BANK14  BANK15  BANK16  BANK17  BANK18  BANK19  BANK20  BANK21  BANK22  BANK23  BANK24  BANK25  BANK2
      +6  BANK27  BANK28  BANK29  BANK30  BANK31
  1793 ;;      Params:         4       0       0       0       0       0       0       0       0       0       0       0       
      +0       0       0       0       0       0       0       0       0       0       0       0       0       0       0       
      +0       0       0       0       0       0
  1794 ;;      Locals:         3       0       0       0       0       0       0       0       0       0       0       0       
      +0       0       0       0       0       0       0       0       0       0       0       0       0       0       0       
      +0       0       0       0       0       0
  1795 ;;      Temps:          0       0       0       0       0       0       0       0       0       0       0       0       
      +0       0       0       0       0       0       0       0       0       0       0       0       0       0       0       
      +0       0       0       0       0       0
  1796 ;;      Totals:         7       0       0       0       0       0       0       0       0       0       0       0       
      +0       0       0       0       0       0       0       0       0       0       0       0       0       0       0       
      +0       0       0       0       0       0
  1797 ;;Total ram usage:        7 bytes
  1798 ;; Hardware stack levels used:    1
  1799 ;; Hardware stack levels required when called:    6
  1800 ;; This function calls:
  1801 ;;		_fputc
  1802 ;; This function is called by:
  1803 ;;		_pad
  1804 ;; This function uses a non-reentrant model
  1805 ;;
  1806                           
  1807                           	psect	text7
  1808  002C0C                     __ptext7:
  1809                           	callstack 0
  1810  002C0C                     _fputs:
  1811                           	callstack 19
  1812  002C0C  0E00               	movlw	0
  1813  002C0E  6E13               	movwf	(fputs@i+1)^0,c
  1814  002C10  0E00               	movlw	0
  1815  002C12  6E12               	movwf	fputs@i^0,c
  1816  002C14  EF17  F016         	goto	l2294
  1817  002C18                     l2290:
  1818  002C18  C011  F004         	movff	fputs@c,fputc@c
  1819  002C1C  6A05               	clrf	(fputc@c+1)^0,c
  1820  002C1E  C00F  F006         	movff	fputs@fp,fputc@fp
  1821  002C22  C010  F007         	movff	fputs@fp+1,fputc@fp+1
  1822  002C26  EC60  F014         	call	_fputc	;wreg free
  1823  002C2A  4A12               	infsnz	fputs@i^0,f,c
  1824  002C2C  2A13               	incf	(fputs@i+1)^0,f,c
  1825  002C2E                     l2294:
  1826  002C2E  5012               	movf	fputs@i^0,w,c
  1827  002C30  240D               	addwf	fputs@s^0,w,c
  1828  002C32  6ED9               	movwf	fsr2l,c
  1829  002C34  5013               	movf	(fputs@i+1)^0,w,c
  1830  002C36  200E               	addwfc	(fputs@s+1)^0,w,c
  1831  002C38  6EDA               	movwf	fsr2h,c
  1832  002C3A  50DF               	movf	indf2,w,c
  1833  002C3C  6E11               	movwf	fputs@c^0,c
  1834  002C3E  5011               	movf	fputs@c^0,w,c
  1835  002C40  A4D8               	btfss	status,2,c
  1836  002C42  EF25  F016         	goto	u1311
  1837  002C46  EF27  F016         	goto	u1310
  1838  002C4A                     u1311:
  1839  002C4A  EF0C  F016         	goto	l2290
  1840  002C4E                     u1310:
  1841  002C4E  0012               	return		;funcret
  1842  002C50                     __end_of_fputs:
  1843                           	callstack 0
  1844                           
  1845 ;; *************** function _fputc *****************
  1846 ;; Defined at:
  1847 ;;		line 8 in file "C:\Program Files\Microchip\xc8\v2.31\pic\sources\c99\common\nf_fputc.c"
  1848 ;; Parameters:    Size  Location     Type
  1849 ;;  c               2    3[COMRAM] int 
  1850 ;;  fp              2    5[COMRAM] PTR struct _IO_FILE
  1851 ;;		 -> NULL(0), 
  1852 ;; Auto vars:     Size  Location     Type
  1853 ;;		None
  1854 ;; Return value:  Size  Location     Type
  1855 ;;                  2    3[COMRAM] int 
  1856 ;; Registers used:
  1857 ;;		wreg, fsr1l, fsr1h, fsr2l, fsr2h, status,2, status,0, cstack
  1858 ;; Tracked objects:
  1859 ;;		On entry : 0/0
  1860 ;;		On exit  : 0/0
  1861 ;;		Unchanged: 0/0
  1862 ;; Data sizes:     COMRAM   BANK0   BANK1   BANK2   BANK3   BANK4   BANK5   BANK6   BANK7   BANK8   BANK9  BANK10  BANK1
      +1  BANK12  BANK13  BANK14  BANK15  BANK16  BANK17  BANK18  BANK19  BANK20  BANK21  BANK22  BANK23  BANK24  BANK25  BANK2
      +6  BANK27  BANK28  BANK29  BANK30  BANK31
  1863 ;;      Params:         4       0       0       0       0       0       0       0       0       0       0       0       
      +0       0       0       0       0       0       0       0       0       0       0       0       0       0       0       
      +0       0       0       0       0       0
  1864 ;;      Locals:         0       0       0       0       0       0       0       0       0       0       0       0       
      +0       0       0       0       0       0       0       0       0       0       0       0       0       0       0       
      +0       0       0       0       0       0
  1865 ;;      Temps:          5       0       0       0       0       0       0       0       0       0       0       0       
      +0       0       0       0       0       0       0       0       0       0       0       0       0       0       0       
      +0       0       0       0       0       0
  1866 ;;      Totals:         9       0       0       0       0       0       0       0       0       0       0       0       
      +0       0       0       0       0       0       0       0       0       0       0       0       0       0       0       
      +0       0       0       0       0       0
  1867 ;;Total ram usage:        9 bytes
  1868 ;; Hardware stack levels used:    1
  1869 ;; Hardware stack levels required when called:    5
  1870 ;; This function calls:
  1871 ;;		_putch
  1872 ;; This function is called by:
  1873 ;;		_pad
  1874 ;;		_vfpfcnvrt
  1875 ;;		_fputs
  1876 ;; This function uses a non-reentrant model
  1877 ;;
  1878                           
  1879                           	psect	text8
  1880  0028C0                     __ptext8:
  1881                           	callstack 0
  1882  0028C0                     _fputc:
  1883                           	callstack 22
  1884  0028C0  5006               	movf	fputc@fp^0,w,c
  1885  0028C2  1007               	iorwf	(fputc@fp+1)^0,w,c
  1886  0028C4  B4D8               	btfsc	status,2,c
  1887  0028C6  EF67  F014         	goto	u1271
  1888  0028CA  EF69  F014         	goto	u1270
  1889  0028CE                     u1271:
  1890  0028CE  EF72  F014         	goto	l2278
  1891  0028D2                     u1270:
  1892  0028D2  5006               	movf	fputc@fp^0,w,c
  1893  0028D4  1007               	iorwf	(fputc@fp+1)^0,w,c
  1894  0028D6  A4D8               	btfss	status,2,c
  1895  0028D8  EF70  F014         	goto	u1281
  1896  0028DC  EF72  F014         	goto	u1280
  1897  0028E0                     u1281:
  1898  0028E0  EF77  F014         	goto	l2280
  1899  0028E4                     u1280:
  1900  0028E4                     l2278:
  1901  0028E4  5004               	movf	fputc@c^0,w,c
  1902  0028E6  EC23  F017         	call	_putch
  1903  0028EA  EFAA  F014         	goto	l1300
  1904  0028EE                     l2280:
  1905  0028EE  EE20 F004          	lfsr	2,4
  1906  0028F2  5006               	movf	fputc@fp^0,w,c
  1907  0028F4  26D9               	addwf	fsr2l,f,c
  1908  0028F6  5007               	movf	(fputc@fp+1)^0,w,c
  1909  0028F8  22DA               	addwfc	fsr2h,f,c
  1910  0028FA  50DE               	movf	postinc2,w,c
  1911  0028FC  10DE               	iorwf	postinc2,w,c
  1912  0028FE  B4D8               	btfsc	status,2,c
  1913  002900  EF84  F014         	goto	u1291
  1914  002904  EF86  F014         	goto	u1290
  1915  002908                     u1291:
  1916  002908  EFA1  F014         	goto	l2284
  1917  00290C                     u1290:
  1918  00290C  EE20 F004          	lfsr	2,4
  1919  002910  5006               	movf	fputc@fp^0,w,c
  1920  002912  26D9               	addwf	fsr2l,f,c
  1921  002914  5007               	movf	(fputc@fp+1)^0,w,c
  1922  002916  22DA               	addwfc	fsr2h,f,c
  1923  002918  EE10 F002          	lfsr	1,2
  1924  00291C  5006               	movf	fputc@fp^0,w,c
  1925  00291E  26E1               	addwf	fsr1l,f,c
  1926  002920  5007               	movf	(fputc@fp+1)^0,w,c
  1927  002922  22E2               	addwfc	fsr1h,f,c
  1928  002924  50DE               	movf	postinc2,w,c
  1929  002926  5CE6               	subwf	postinc1,w,c
  1930  002928  50E6               	movf	postinc1,w,c
  1931  00292A  0A80               	xorlw	128
  1932  00292C  6E0C               	movwf	(??_fputc+4)^0,c
  1933  00292E  50DE               	movf	postinc2,w,c
  1934  002930  0A80               	xorlw	128
  1935  002932  580C               	subwfb	(??_fputc+4)^0,w,c
  1936  002934  B0D8               	btfsc	status,0,c
  1937  002936  EF9F  F014         	goto	u1301
  1938  00293A  EFA1  F014         	goto	u1300
  1939  00293E                     u1301:
  1940  00293E  EFAA  F014         	goto	l1300
  1941  002942                     u1300:
  1942  002942                     l2284:
  1943  002942  EE20 F002          	lfsr	2,2
  1944  002946  5006               	movf	fputc@fp^0,w,c
  1945  002948  26D9               	addwf	fsr2l,f,c
  1946  00294A  5007               	movf	(fputc@fp+1)^0,w,c
  1947  00294C  22DA               	addwfc	fsr2h,f,c
  1948  00294E  2ADE               	incf	postinc2,f,c
  1949  002950  0E00               	movlw	0
  1950  002952  22DD               	addwfc	postdec2,f,c
  1951  002954                     l1300:
  1952  002954  0012               	return		;funcret
  1953  002956                     __end_of_fputc:
  1954                           	callstack 0
  1955                           
  1956 ;; *************** function _putch *****************
  1957 ;; Defined at:
  1958 ;;		line 184 in file "mcc_generated_files/uart1.c"
  1959 ;; Parameters:    Size  Location     Type
  1960 ;;  txData          1    wreg     unsigned char 
  1961 ;; Auto vars:     Size  Location     Type
  1962 ;;  txData          1    2[COMRAM] unsigned char 
  1963 ;; Return value:  Size  Location     Type
  1964 ;;                  1    wreg      void 
  1965 ;; Registers used:
  1966 ;;		wreg, status,2, cstack
  1967 ;; Tracked objects:
  1968 ;;		On entry : 0/0
  1969 ;;		On exit  : 0/0
  1970 ;;		Unchanged: 0/0
  1971 ;; Data sizes:     COMRAM   BANK0   BANK1   BANK2   BANK3   BANK4   BANK5   BANK6   BANK7   BANK8   BANK9  BANK10  BANK1
      +1  BANK12  BANK13  BANK14  BANK15  BANK16  BANK17  BANK18  BANK19  BANK20  BANK21  BANK22  BANK23  BANK24  BANK25  BANK2
      +6  BANK27  BANK28  BANK29  BANK30  BANK31
  1972 ;;      Params:         0       0       0       0       0       0       0       0       0       0       0       0       
      +0       0       0       0       0       0       0       0       0       0       0       0       0       0       0       
      +0       0       0       0       0       0
  1973 ;;      Locals:         1       0       0       0       0       0       0       0       0       0       0       0       
      +0       0       0       0       0       0       0       0       0       0       0       0       0       0       0       
      +0       0       0       0       0       0
  1974 ;;      Temps:          0       0       0       0       0       0       0       0       0       0       0       0       
      +0       0       0       0       0       0       0       0       0       0       0       0       0       0       0       
      +0       0       0       0       0       0
  1975 ;;      Totals:         1       0       0       0       0       0       0       0       0       0       0       0       
      +0       0       0       0       0       0       0       0       0       0       0       0       0       0       0       
      +0       0       0       0       0       0
  1976 ;;Total ram usage:        1 bytes
  1977 ;; Hardware stack levels used:    1
  1978 ;; Hardware stack levels required when called:    4
  1979 ;; This function calls:
  1980 ;;		_UART1_Write
  1981 ;; This function is called by:
  1982 ;;		_fputc
  1983 ;; This function uses a non-reentrant model
  1984 ;;
  1985                           
  1986                           	psect	text9
  1987  002E46                     __ptext9:
  1988                           	callstack 0
  1989  002E46                     _putch:
  1990                           	callstack 22
  1991                           
  1992                           ;incstack = 0
  1993                           ;putch@txData stored from wreg
  1994  002E46  6E03               	movwf	putch@txData^0,c
  1995  002E48                     
  1996                           ;mcc_generated_files/uart1.c: 184: void putch(char txData);mcc_generated_files/uart1.c: 
      +                          185: {;mcc_generated_files/uart1.c: 186:     UART1_Write(txData);
  1997  002E48  5003               	movf	putch@txData^0,w,c
  1998  002E4A  ECD0  F016         	call	_UART1_Write
  1999  002E4E  0012               	return		;funcret
  2000  002E50                     __end_of_putch:
  2001                           	callstack 0
  2002                           
  2003 ;; *************** function _UART1_Write *****************
  2004 ;; Defined at:
  2005 ;;		line 170 in file "mcc_generated_files/uart1.c"
  2006 ;; Parameters:    Size  Location     Type
  2007 ;;  txData          1    wreg     unsigned char 
  2008 ;; Auto vars:     Size  Location     Type
  2009 ;;  txData          1    1[COMRAM] unsigned char 
  2010 ;; Return value:  Size  Location     Type
  2011 ;;                  1    wreg      void 
  2012 ;; Registers used:
  2013 ;;		wreg
  2014 ;; Tracked objects:
  2015 ;;		On entry : 0/0
  2016 ;;		On exit  : 0/0
  2017 ;;		Unchanged: 0/0
  2018 ;; Data sizes:     COMRAM   BANK0   BANK1   BANK2   BANK3   BANK4   BANK5   BANK6   BANK7   BANK8   BANK9  BANK10  BANK1
      +1  BANK12  BANK13  BANK14  BANK15  BANK16  BANK17  BANK18  BANK19  BANK20  BANK21  BANK22  BANK23  BANK24  BANK25  BANK2
      +6  BANK27  BANK28  BANK29  BANK30  BANK31
  2019 ;;      Params:         0       0       0       0       0       0       0       0       0       0       0       0       
      +0       0       0       0       0       0       0       0       0       0       0       0       0       0       0       
      +0       0       0       0       0       0
  2020 ;;      Locals:         1       0       0       0       0       0       0       0       0       0       0       0       
      +0       0       0       0       0       0       0       0       0       0       0       0       0       0       0       
      +0       0       0       0       0       0
  2021 ;;      Temps:          0       0       0       0       0       0       0       0       0       0       0       0       
      +0       0       0       0       0       0       0       0       0       0       0       0       0       0       0       
      +0       0       0       0       0       0
  2022 ;;      Totals:         1       0       0       0       0       0       0       0       0       0       0       0       
      +0       0       0       0       0       0       0       0       0       0       0       0       0       0       0       
      +0       0       0       0       0       0
  2023 ;;Total ram usage:        1 bytes
  2024 ;; Hardware stack levels used:    1
  2025 ;; Hardware stack levels required when called:    3
  2026 ;; This function calls:
  2027 ;;		Nothing
  2028 ;; This function is called by:
  2029 ;;		_putch
  2030 ;; This function uses a non-reentrant model
  2031 ;;
  2032                           
  2033                           	psect	text10
  2034  002DA0                     __ptext10:
  2035                           	callstack 0
  2036  002DA0                     _UART1_Write:
  2037                           	callstack 22
  2038                           
  2039                           ;incstack = 0
  2040                           ;UART1_Write@txData stored from wreg
  2041  002DA0  6E02               	movwf	UART1_Write@txData^0,c
  2042  002DA2                     l89:
  2043                           
  2044                           ;mcc_generated_files/uart1.c: 172:     while(0 == PIR3bits.U1TXIF)
  2045  002DA2  0139               	movlb	57	; () banked
  2046  002DA4  A9A3               	btfss	163,4,b	;volatile
  2047  002DA6  EFD7  F016         	goto	u1261
  2048  002DAA  EFD9  F016         	goto	u1260
  2049  002DAE                     u1261:
  2050  002DAE  EFD1  F016         	goto	l89
  2051  002DB2                     u1260:
  2052  002DB2                     
  2053                           ; BSR set to: 57
  2054                           ;mcc_generated_files/uart1.c: 176:     U1TXB = txData;
  2055  002DB2  0060  F00B  FDEA   	movff	UART1_Write@txData,15850	;volatile
  2056  002DB8                     
  2057                           ; BSR set to: 57
  2058  002DB8  0012               	return		;funcret
  2059  002DBA                     __end_of_UART1_Write:
  2060                           	callstack 0
  2061                           
  2062 ;; *************** function _abs *****************
  2063 ;; Defined at:
  2064 ;;		line 1 in file "C:\Program Files\Microchip\xc8\v2.31\pic\sources\c99\common\abs.c"
  2065 ;; Parameters:    Size  Location     Type
  2066 ;;  a               2   19[COMRAM] int 
  2067 ;; Auto vars:     Size  Location     Type
  2068 ;;		None
  2069 ;; Return value:  Size  Location     Type
  2070 ;;                  2   19[COMRAM] int 
  2071 ;; Registers used:
  2072 ;;		wreg, status,2, status,0
  2073 ;; Tracked objects:
  2074 ;;		On entry : 0/0
  2075 ;;		On exit  : 0/0
  2076 ;;		Unchanged: 0/0
  2077 ;; Data sizes:     COMRAM   BANK0   BANK1   BANK2   BANK3   BANK4   BANK5   BANK6   BANK7   BANK8   BANK9  BANK10  BANK1
      +1  BANK12  BANK13  BANK14  BANK15  BANK16  BANK17  BANK18  BANK19  BANK20  BANK21  BANK22  BANK23  BANK24  BANK25  BANK2
      +6  BANK27  BANK28  BANK29  BANK30  BANK31
  2078 ;;      Params:         2       0       0       0       0       0       0       0       0       0       0       0       
      +0       0       0       0       0       0       0       0       0       0       0       0       0       0       0       
      +0       0       0       0       0       0
  2079 ;;      Locals:         0       0       0       0       0       0       0       0       0       0       0       0       
      +0       0       0       0       0       0       0       0       0       0       0       0       0       0       0       
      +0       0       0       0       0       0
  2080 ;;      Temps:          2       0       0       0       0       0       0       0       0       0       0       0       
      +0       0       0       0       0       0       0       0       0       0       0       0       0       0       0       
      +0       0       0       0       0       0
  2081 ;;      Totals:         4       0       0       0       0       0       0       0       0       0       0       0       
      +0       0       0       0       0       0       0       0       0       0       0       0       0       0       0       
      +0       0       0       0       0       0
  2082 ;;Total ram usage:        4 bytes
  2083 ;; Hardware stack levels used:    1
  2084 ;; Hardware stack levels required when called:    3
  2085 ;; This function calls:
  2086 ;;		Nothing
  2087 ;; This function is called by:
  2088 ;;		_dtoa
  2089 ;; This function uses a non-reentrant model
  2090 ;;
  2091                           
  2092                           	psect	text11
  2093  002C50                     __ptext11:
  2094                           	callstack 0
  2095  002C50                     _abs:
  2096                           	callstack 23
  2097  002C50  BE15               	btfsc	(abs@a+1)^0,7,c
  2098  002C52  EF35  F016         	goto	u1500
  2099  002C56  5015               	movf	(abs@a+1)^0,w,c
  2100  002C58  E106               	bnz	u1501
  2101  002C5A  0414               	decf	abs@a^0,w,c
  2102  002C5C  B0D8               	btfsc	status,0,c
  2103  002C5E  EF33  F016         	goto	u1501
  2104  002C62  EF35  F016         	goto	u1500
  2105  002C66                     u1501:
  2106  002C66  EF43  F016         	goto	l1285
  2107  002C6A                     u1500:
  2108  002C6A  C014  F016         	movff	abs@a,??_abs
  2109  002C6E  C015  F017         	movff	abs@a+1,??_abs+1
  2110  002C72  1E16               	comf	??_abs^0,f,c
  2111  002C74  1E17               	comf	(??_abs+1)^0,f,c
  2112  002C76  4A16               	infsnz	??_abs^0,f,c
  2113  002C78  2A17               	incf	(??_abs+1)^0,f,c
  2114  002C7A  C016  F014         	movff	??_abs,?_abs
  2115  002C7E  C017  F015         	movff	??_abs+1,?_abs+1
  2116  002C82  EF47  F016         	goto	l1288
  2117  002C86                     l1285:
  2118  002C86  C014  F014         	movff	abs@a,?_abs
  2119  002C8A  C015  F015         	movff	abs@a+1,?_abs+1
  2120  002C8E                     l1288:
  2121  002C8E  0012               	return		;funcret
  2122  002C90                     __end_of_abs:
  2123                           	callstack 0
  2124                           
  2125 ;; *************** function ___aomod *****************
  2126 ;; Defined at:
  2127 ;;		line 9 in file "C:\Program Files\Microchip\xc8\v2.31\pic\sources\c99\common\aomod.c"
  2128 ;; Parameters:    Size  Location     Type
  2129 ;;  dividend        8    1[COMRAM] long long 
  2130 ;;  divisor         8    9[COMRAM] long long 
  2131 ;; Auto vars:     Size  Location     Type
  2132 ;;  sign            1   18[COMRAM] unsigned char 
  2133 ;;  counter         1   17[COMRAM] unsigned char 
  2134 ;; Return value:  Size  Location     Type
  2135 ;;                  8    1[COMRAM] long long 
  2136 ;; Registers used:
  2137 ;;		wreg, status,2, status,0
  2138 ;; Tracked objects:
  2139 ;;		On entry : 0/0
  2140 ;;		On exit  : 0/0
  2141 ;;		Unchanged: 0/0
  2142 ;; Data sizes:     COMRAM   BANK0   BANK1   BANK2   BANK3   BANK4   BANK5   BANK6   BANK7   BANK8   BANK9  BANK10  BANK1
      +1  BANK12  BANK13  BANK14  BANK15  BANK16  BANK17  BANK18  BANK19  BANK20  BANK21  BANK22  BANK23  BANK24  BANK25  BANK2
      +6  BANK27  BANK28  BANK29  BANK30  BANK31
  2143 ;;      Params:        16       0       0       0       0       0       0       0       0       0       0       0       
      +0       0       0       0       0       0       0       0       0       0       0       0       0       0       0       
      +0       0       0       0       0       0
  2144 ;;      Locals:         2       0       0       0       0       0       0       0       0       0       0       0       
      +0       0       0       0       0       0       0       0       0       0       0       0       0       0       0       
      +0       0       0       0       0       0
  2145 ;;      Temps:          0       0       0       0       0       0       0       0       0       0       0       0       
      +0       0       0       0       0       0       0       0       0       0       0       0       0       0       0       
      +0       0       0       0       0       0
  2146 ;;      Totals:        18       0       0       0       0       0       0       0       0       0       0       0       
      +0       0       0       0       0       0       0       0       0       0       0       0       0       0       0       
      +0       0       0       0       0       0
  2147 ;;Total ram usage:       18 bytes
  2148 ;; Hardware stack levels used:    1
  2149 ;; Hardware stack levels required when called:    3
  2150 ;; This function calls:
  2151 ;;		Nothing
  2152 ;; This function is called by:
  2153 ;;		_dtoa
  2154 ;; This function uses a non-reentrant model
  2155 ;;
  2156                           
  2157                           	psect	text12
  2158  002696                     __ptext12:
  2159                           	callstack 0
  2160  002696                     ___aomod:
  2161                           	callstack 23
  2162  002696  0E00               	movlw	0
  2163  002698  6E13               	movwf	___aomod@sign^0,c
  2164  00269A  BE09               	btfsc	(___aomod@dividend+7)^0,7,c
  2165  00269C  EF54  F013         	goto	u1400
  2166  0026A0  EF52  F013         	goto	u1401
  2167  0026A4                     u1401:
  2168  0026A4  EF66  F013         	goto	l2358
  2169  0026A8                     u1400:
  2170  0026A8  1E09               	comf	(___aomod@dividend+7)^0,f,c
  2171  0026AA  1E08               	comf	(___aomod@dividend+6)^0,f,c
  2172  0026AC  1E07               	comf	(___aomod@dividend+5)^0,f,c
  2173  0026AE  1E06               	comf	(___aomod@dividend+4)^0,f,c
  2174  0026B0  1E05               	comf	(___aomod@dividend+3)^0,f,c
  2175  0026B2  1E04               	comf	(___aomod@dividend+2)^0,f,c
  2176  0026B4  1E03               	comf	(___aomod@dividend+1)^0,f,c
  2177  0026B6  6C02               	negf	___aomod@dividend^0,c
  2178  0026B8  0E00               	movlw	0
  2179  0026BA  2203               	addwfc	(___aomod@dividend+1)^0,f,c
  2180  0026BC  2204               	addwfc	(___aomod@dividend+2)^0,f,c
  2181  0026BE  2205               	addwfc	(___aomod@dividend+3)^0,f,c
  2182  0026C0  2206               	addwfc	(___aomod@dividend+4)^0,f,c
  2183  0026C2  2207               	addwfc	(___aomod@dividend+5)^0,f,c
  2184  0026C4  2208               	addwfc	(___aomod@dividend+6)^0,f,c
  2185  0026C6  2209               	addwfc	(___aomod@dividend+7)^0,f,c
  2186  0026C8  0E01               	movlw	1
  2187  0026CA  6E13               	movwf	___aomod@sign^0,c
  2188  0026CC                     l2358:
  2189  0026CC  BE11               	btfsc	(___aomod@divisor+7)^0,7,c
  2190  0026CE  EF6D  F013         	goto	u1410
  2191  0026D2  EF6B  F013         	goto	u1411
  2192  0026D6                     u1411:
  2193  0026D6  EF7D  F013         	goto	l2362
  2194  0026DA                     u1410:
  2195  0026DA  1E11               	comf	(___aomod@divisor+7)^0,f,c
  2196  0026DC  1E10               	comf	(___aomod@divisor+6)^0,f,c
  2197  0026DE  1E0F               	comf	(___aomod@divisor+5)^0,f,c
  2198  0026E0  1E0E               	comf	(___aomod@divisor+4)^0,f,c
  2199  0026E2  1E0D               	comf	(___aomod@divisor+3)^0,f,c
  2200  0026E4  1E0C               	comf	(___aomod@divisor+2)^0,f,c
  2201  0026E6  1E0B               	comf	(___aomod@divisor+1)^0,f,c
  2202  0026E8  6C0A               	negf	___aomod@divisor^0,c
  2203  0026EA  0E00               	movlw	0
  2204  0026EC  220B               	addwfc	(___aomod@divisor+1)^0,f,c
  2205  0026EE  220C               	addwfc	(___aomod@divisor+2)^0,f,c
  2206  0026F0  220D               	addwfc	(___aomod@divisor+3)^0,f,c
  2207  0026F2  220E               	addwfc	(___aomod@divisor+4)^0,f,c
  2208  0026F4  220F               	addwfc	(___aomod@divisor+5)^0,f,c
  2209  0026F6  2210               	addwfc	(___aomod@divisor+6)^0,f,c
  2210  0026F8  2211               	addwfc	(___aomod@divisor+7)^0,f,c
  2211  0026FA                     l2362:
  2212  0026FA  500A               	movf	___aomod@divisor^0,w,c
  2213  0026FC  100B               	iorwf	(___aomod@divisor+1)^0,w,c
  2214  0026FE  100C               	iorwf	(___aomod@divisor+2)^0,w,c
  2215  002700  100D               	iorwf	(___aomod@divisor+3)^0,w,c
  2216  002702  100E               	iorwf	(___aomod@divisor+4)^0,w,c
  2217  002704  100F               	iorwf	(___aomod@divisor+5)^0,w,c
  2218  002706  1010               	iorwf	(___aomod@divisor+6)^0,w,c
  2219  002708  1011               	iorwf	(___aomod@divisor+7)^0,w,c
  2220  00270A  B4D8               	btfsc	status,2,c
  2221  00270C  EF8A  F013         	goto	u1421
  2222  002710  EF8C  F013         	goto	u1420
  2223  002714                     u1421:
  2224  002714  EFD4  F013         	goto	l2378
  2225  002718                     u1420:
  2226  002718  0E01               	movlw	1
  2227  00271A  6E12               	movwf	___aomod@counter^0,c
  2228  00271C  EF9A  F013         	goto	l2368
  2229  002720                     l2366:
  2230  002720  90D8               	bcf	status,0,c
  2231  002722  360A               	rlcf	___aomod@divisor^0,f,c
  2232  002724  360B               	rlcf	(___aomod@divisor+1)^0,f,c
  2233  002726  360C               	rlcf	(___aomod@divisor+2)^0,f,c
  2234  002728  360D               	rlcf	(___aomod@divisor+3)^0,f,c
  2235  00272A  360E               	rlcf	(___aomod@divisor+4)^0,f,c
  2236  00272C  360F               	rlcf	(___aomod@divisor+5)^0,f,c
  2237  00272E  3610               	rlcf	(___aomod@divisor+6)^0,f,c
  2238  002730  3611               	rlcf	(___aomod@divisor+7)^0,f,c
  2239  002732  2A12               	incf	___aomod@counter^0,f,c
  2240  002734                     l2368:
  2241  002734  AE11               	btfss	(___aomod@divisor+7)^0,7,c
  2242  002736  EF9F  F013         	goto	u1431
  2243  00273A  EFA1  F013         	goto	u1430
  2244  00273E                     u1431:
  2245  00273E  EF90  F013         	goto	l2366
  2246  002742                     u1430:
  2247  002742                     l2370:
  2248  002742  500A               	movf	___aomod@divisor^0,w,c
  2249  002744  5C02               	subwf	___aomod@dividend^0,w,c
  2250  002746  500B               	movf	(___aomod@divisor+1)^0,w,c
  2251  002748  5803               	subwfb	(___aomod@dividend+1)^0,w,c
  2252  00274A  500C               	movf	(___aomod@divisor+2)^0,w,c
  2253  00274C  5804               	subwfb	(___aomod@dividend+2)^0,w,c
  2254  00274E  500D               	movf	(___aomod@divisor+3)^0,w,c
  2255  002750  5805               	subwfb	(___aomod@dividend+3)^0,w,c
  2256  002752  500E               	movf	(___aomod@divisor+4)^0,w,c
  2257  002754  5806               	subwfb	(___aomod@dividend+4)^0,w,c
  2258  002756  500F               	movf	(___aomod@divisor+5)^0,w,c
  2259  002758  5807               	subwfb	(___aomod@dividend+5)^0,w,c
  2260  00275A  5010               	movf	(___aomod@divisor+6)^0,w,c
  2261  00275C  5808               	subwfb	(___aomod@dividend+6)^0,w,c
  2262  00275E  5011               	movf	(___aomod@divisor+7)^0,w,c
  2263  002760  5809               	subwfb	(___aomod@dividend+7)^0,w,c
  2264  002762  A0D8               	btfss	status,0,c
  2265  002764  EFB6  F013         	goto	u1441
  2266  002768  EFB8  F013         	goto	u1440
  2267  00276C                     u1441:
  2268  00276C  EFC8  F013         	goto	l2374
  2269  002770                     u1440:
  2270  002770  500A               	movf	___aomod@divisor^0,w,c
  2271  002772  5E02               	subwf	___aomod@dividend^0,f,c
  2272  002774  500B               	movf	(___aomod@divisor+1)^0,w,c
  2273  002776  5A03               	subwfb	(___aomod@dividend+1)^0,f,c
  2274  002778  500C               	movf	(___aomod@divisor+2)^0,w,c
  2275  00277A  5A04               	subwfb	(___aomod@dividend+2)^0,f,c
  2276  00277C  500D               	movf	(___aomod@divisor+3)^0,w,c
  2277  00277E  5A05               	subwfb	(___aomod@dividend+3)^0,f,c
  2278  002780  500E               	movf	(___aomod@divisor+4)^0,w,c
  2279  002782  5A06               	subwfb	(___aomod@dividend+4)^0,f,c
  2280  002784  500F               	movf	(___aomod@divisor+5)^0,w,c
  2281  002786  5A07               	subwfb	(___aomod@dividend+5)^0,f,c
  2282  002788  5010               	movf	(___aomod@divisor+6)^0,w,c
  2283  00278A  5A08               	subwfb	(___aomod@dividend+6)^0,f,c
  2284  00278C  5011               	movf	(___aomod@divisor+7)^0,w,c
  2285  00278E  5A09               	subwfb	(___aomod@dividend+7)^0,f,c
  2286  002790                     l2374:
  2287  002790  90D8               	bcf	status,0,c
  2288  002792  3211               	rrcf	(___aomod@divisor+7)^0,f,c
  2289  002794  3210               	rrcf	(___aomod@divisor+6)^0,f,c
  2290  002796  320F               	rrcf	(___aomod@divisor+5)^0,f,c
  2291  002798  320E               	rrcf	(___aomod@divisor+4)^0,f,c
  2292  00279A  320D               	rrcf	(___aomod@divisor+3)^0,f,c
  2293  00279C  320C               	rrcf	(___aomod@divisor+2)^0,f,c
  2294  00279E  320B               	rrcf	(___aomod@divisor+1)^0,f,c
  2295  0027A0  320A               	rrcf	___aomod@divisor^0,f,c
  2296  0027A2  2E12               	decfsz	___aomod@counter^0,f,c
  2297  0027A4  EFA1  F013         	goto	l2370
  2298  0027A8                     l2378:
  2299  0027A8  5013               	movf	___aomod@sign^0,w,c
  2300  0027AA  B4D8               	btfsc	status,2,c
  2301  0027AC  EFDA  F013         	goto	u1451
  2302  0027B0  EFDC  F013         	goto	u1450
  2303  0027B4                     u1451:
  2304  0027B4  EFEC  F013         	goto	l2382
  2305  0027B8                     u1450:
  2306  0027B8  1E09               	comf	(___aomod@dividend+7)^0,f,c
  2307  0027BA  1E08               	comf	(___aomod@dividend+6)^0,f,c
  2308  0027BC  1E07               	comf	(___aomod@dividend+5)^0,f,c
  2309  0027BE  1E06               	comf	(___aomod@dividend+4)^0,f,c
  2310  0027C0  1E05               	comf	(___aomod@dividend+3)^0,f,c
  2311  0027C2  1E04               	comf	(___aomod@dividend+2)^0,f,c
  2312  0027C4  1E03               	comf	(___aomod@dividend+1)^0,f,c
  2313  0027C6  6C02               	negf	___aomod@dividend^0,c
  2314  0027C8  0E00               	movlw	0
  2315  0027CA  2203               	addwfc	(___aomod@dividend+1)^0,f,c
  2316  0027CC  2204               	addwfc	(___aomod@dividend+2)^0,f,c
  2317  0027CE  2205               	addwfc	(___aomod@dividend+3)^0,f,c
  2318  0027D0  2206               	addwfc	(___aomod@dividend+4)^0,f,c
  2319  0027D2  2207               	addwfc	(___aomod@dividend+5)^0,f,c
  2320  0027D4  2208               	addwfc	(___aomod@dividend+6)^0,f,c
  2321  0027D6  2209               	addwfc	(___aomod@dividend+7)^0,f,c
  2322  0027D8                     l2382:
  2323  0027D8  C002  F002         	movff	___aomod@dividend,?___aomod
  2324  0027DC  C003  F003         	movff	___aomod@dividend+1,?___aomod+1
  2325  0027E0  C004  F004         	movff	___aomod@dividend+2,?___aomod+2
  2326  0027E4  C005  F005         	movff	___aomod@dividend+3,?___aomod+3
  2327  0027E8  C006  F006         	movff	___aomod@dividend+4,?___aomod+4
  2328  0027EC  C007  F007         	movff	___aomod@dividend+5,?___aomod+5
  2329  0027F0  C008  F008         	movff	___aomod@dividend+6,?___aomod+6
  2330  0027F4  C009  F009         	movff	___aomod@dividend+7,?___aomod+7
  2331  0027F8  0012               	return		;funcret
  2332  0027FA                     __end_of___aomod:
  2333                           	callstack 0
  2334                           
  2335 ;; *************** function ___aodiv *****************
  2336 ;; Defined at:
  2337 ;;		line 9 in file "C:\Program Files\Microchip\xc8\v2.31\pic\sources\c99\common\aodiv.c"
  2338 ;; Parameters:    Size  Location     Type
  2339 ;;  dividend        8    1[COMRAM] long long 
  2340 ;;  divisor         8    9[COMRAM] long long 
  2341 ;; Auto vars:     Size  Location     Type
  2342 ;;  quotient        8   19[COMRAM] long long 
  2343 ;;  sign            1   18[COMRAM] unsigned char 
  2344 ;;  counter         1   17[COMRAM] unsigned char 
  2345 ;; Return value:  Size  Location     Type
  2346 ;;                  8    1[COMRAM] long long 
  2347 ;; Registers used:
  2348 ;;		wreg, fsr2l, fsr2h, status,2, status,0
  2349 ;; Tracked objects:
  2350 ;;		On entry : 0/0
  2351 ;;		On exit  : 0/0
  2352 ;;		Unchanged: 0/0
  2353 ;; Data sizes:     COMRAM   BANK0   BANK1   BANK2   BANK3   BANK4   BANK5   BANK6   BANK7   BANK8   BANK9  BANK10  BANK1
      +1  BANK12  BANK13  BANK14  BANK15  BANK16  BANK17  BANK18  BANK19  BANK20  BANK21  BANK22  BANK23  BANK24  BANK25  BANK2
      +6  BANK27  BANK28  BANK29  BANK30  BANK31
  2354 ;;      Params:        16       0       0       0       0       0       0       0       0       0       0       0       
      +0       0       0       0       0       0       0       0       0       0       0       0       0       0       0       
      +0       0       0       0       0       0
  2355 ;;      Locals:        10       0       0       0       0       0       0       0       0       0       0       0       
      +0       0       0       0       0       0       0       0       0       0       0       0       0       0       0       
      +0       0       0       0       0       0
  2356 ;;      Temps:          0       0       0       0       0       0       0       0       0       0       0       0       
      +0       0       0       0       0       0       0       0       0       0       0       0       0       0       0       
      +0       0       0       0       0       0
  2357 ;;      Totals:        26       0       0       0       0       0       0       0       0       0       0       0       
      +0       0       0       0       0       0       0       0       0       0       0       0       0       0       0       
      +0       0       0       0       0       0
  2358 ;;Total ram usage:       26 bytes
  2359 ;; Hardware stack levels used:    1
  2360 ;; Hardware stack levels required when called:    3
  2361 ;; This function calls:
  2362 ;;		Nothing
  2363 ;; This function is called by:
  2364 ;;		_dtoa
  2365 ;; This function uses a non-reentrant model
  2366 ;;
  2367                           
  2368                           	psect	text13
  2369  00250E                     __ptext13:
  2370                           	callstack 0
  2371  00250E                     ___aodiv:
  2372                           	callstack 23
  2373  00250E  0E00               	movlw	0
  2374  002510  6E13               	movwf	___aodiv@sign^0,c
  2375  002512  BE11               	btfsc	(___aodiv@divisor+7)^0,7,c
  2376  002514  EF90  F012         	goto	u1330
  2377  002518  EF8E  F012         	goto	u1331
  2378  00251C                     u1331:
  2379  00251C  EFA2  F012         	goto	l2314
  2380  002520                     u1330:
  2381  002520  1E11               	comf	(___aodiv@divisor+7)^0,f,c
  2382  002522  1E10               	comf	(___aodiv@divisor+6)^0,f,c
  2383  002524  1E0F               	comf	(___aodiv@divisor+5)^0,f,c
  2384  002526  1E0E               	comf	(___aodiv@divisor+4)^0,f,c
  2385  002528  1E0D               	comf	(___aodiv@divisor+3)^0,f,c
  2386  00252A  1E0C               	comf	(___aodiv@divisor+2)^0,f,c
  2387  00252C  1E0B               	comf	(___aodiv@divisor+1)^0,f,c
  2388  00252E  6C0A               	negf	___aodiv@divisor^0,c
  2389  002530  0E00               	movlw	0
  2390  002532  220B               	addwfc	(___aodiv@divisor+1)^0,f,c
  2391  002534  220C               	addwfc	(___aodiv@divisor+2)^0,f,c
  2392  002536  220D               	addwfc	(___aodiv@divisor+3)^0,f,c
  2393  002538  220E               	addwfc	(___aodiv@divisor+4)^0,f,c
  2394  00253A  220F               	addwfc	(___aodiv@divisor+5)^0,f,c
  2395  00253C  2210               	addwfc	(___aodiv@divisor+6)^0,f,c
  2396  00253E  2211               	addwfc	(___aodiv@divisor+7)^0,f,c
  2397  002540  0E01               	movlw	1
  2398  002542  6E13               	movwf	___aodiv@sign^0,c
  2399  002544                     l2314:
  2400  002544  BE09               	btfsc	(___aodiv@dividend+7)^0,7,c
  2401  002546  EFA9  F012         	goto	u1340
  2402  00254A  EFA7  F012         	goto	u1341
  2403  00254E                     u1341:
  2404  00254E  EFBB  F012         	goto	l2320
  2405  002552                     u1340:
  2406  002552  1E09               	comf	(___aodiv@dividend+7)^0,f,c
  2407  002554  1E08               	comf	(___aodiv@dividend+6)^0,f,c
  2408  002556  1E07               	comf	(___aodiv@dividend+5)^0,f,c
  2409  002558  1E06               	comf	(___aodiv@dividend+4)^0,f,c
  2410  00255A  1E05               	comf	(___aodiv@dividend+3)^0,f,c
  2411  00255C  1E04               	comf	(___aodiv@dividend+2)^0,f,c
  2412  00255E  1E03               	comf	(___aodiv@dividend+1)^0,f,c
  2413  002560  6C02               	negf	___aodiv@dividend^0,c
  2414  002562  0E00               	movlw	0
  2415  002564  2203               	addwfc	(___aodiv@dividend+1)^0,f,c
  2416  002566  2204               	addwfc	(___aodiv@dividend+2)^0,f,c
  2417  002568  2205               	addwfc	(___aodiv@dividend+3)^0,f,c
  2418  00256A  2206               	addwfc	(___aodiv@dividend+4)^0,f,c
  2419  00256C  2207               	addwfc	(___aodiv@dividend+5)^0,f,c
  2420  00256E  2208               	addwfc	(___aodiv@dividend+6)^0,f,c
  2421  002570  2209               	addwfc	(___aodiv@dividend+7)^0,f,c
  2422  002572  0E01               	movlw	1
  2423  002574  1A13               	xorwf	___aodiv@sign^0,f,c
  2424  002576                     l2320:
  2425  002576  EE20  F014         	lfsr	2,___aodiv@quotient
  2426  00257A  0E07               	movlw	7
  2427  00257C                     u1351:
  2428  00257C  6ADE               	clrf	postinc2,c
  2429  00257E  06E8               	decf	wreg,f,c
  2430  002580  E2FD               	bc	u1351
  2431  002582  500A               	movf	___aodiv@divisor^0,w,c
  2432  002584  100B               	iorwf	(___aodiv@divisor+1)^0,w,c
  2433  002586  100C               	iorwf	(___aodiv@divisor+2)^0,w,c
  2434  002588  100D               	iorwf	(___aodiv@divisor+3)^0,w,c
  2435  00258A  100E               	iorwf	(___aodiv@divisor+4)^0,w,c
  2436  00258C  100F               	iorwf	(___aodiv@divisor+5)^0,w,c
  2437  00258E  1010               	iorwf	(___aodiv@divisor+6)^0,w,c
  2438  002590  1011               	iorwf	(___aodiv@divisor+7)^0,w,c
  2439  002592  B4D8               	btfsc	status,2,c
  2440  002594  EFCE  F012         	goto	u1361
  2441  002598  EFD0  F012         	goto	u1360
  2442  00259C                     u1361:
  2443  00259C  EF22  F013         	goto	l2342
  2444  0025A0                     u1360:
  2445  0025A0  0E01               	movlw	1
  2446  0025A2  6E12               	movwf	___aodiv@counter^0,c
  2447  0025A4  EFDE  F012         	goto	l2328
  2448  0025A8                     l2326:
  2449  0025A8  90D8               	bcf	status,0,c
  2450  0025AA  360A               	rlcf	___aodiv@divisor^0,f,c
  2451  0025AC  360B               	rlcf	(___aodiv@divisor+1)^0,f,c
  2452  0025AE  360C               	rlcf	(___aodiv@divisor+2)^0,f,c
  2453  0025B0  360D               	rlcf	(___aodiv@divisor+3)^0,f,c
  2454  0025B2  360E               	rlcf	(___aodiv@divisor+4)^0,f,c
  2455  0025B4  360F               	rlcf	(___aodiv@divisor+5)^0,f,c
  2456  0025B6  3610               	rlcf	(___aodiv@divisor+6)^0,f,c
  2457  0025B8  3611               	rlcf	(___aodiv@divisor+7)^0,f,c
  2458  0025BA  2A12               	incf	___aodiv@counter^0,f,c
  2459  0025BC                     l2328:
  2460  0025BC  AE11               	btfss	(___aodiv@divisor+7)^0,7,c
  2461  0025BE  EFE3  F012         	goto	u1371
  2462  0025C2  EFE5  F012         	goto	u1370
  2463  0025C6                     u1371:
  2464  0025C6  EFD4  F012         	goto	l2326
  2465  0025CA                     u1370:
  2466  0025CA                     l2330:
  2467  0025CA  90D8               	bcf	status,0,c
  2468  0025CC  3614               	rlcf	___aodiv@quotient^0,f,c
  2469  0025CE  3615               	rlcf	(___aodiv@quotient+1)^0,f,c
  2470  0025D0  3616               	rlcf	(___aodiv@quotient+2)^0,f,c
  2471  0025D2  3617               	rlcf	(___aodiv@quotient+3)^0,f,c
  2472  0025D4  3618               	rlcf	(___aodiv@quotient+4)^0,f,c
  2473  0025D6  3619               	rlcf	(___aodiv@quotient+5)^0,f,c
  2474  0025D8  361A               	rlcf	(___aodiv@quotient+6)^0,f,c
  2475  0025DA  361B               	rlcf	(___aodiv@quotient+7)^0,f,c
  2476  0025DC  500A               	movf	___aodiv@divisor^0,w,c
  2477  0025DE  5C02               	subwf	___aodiv@dividend^0,w,c
  2478  0025E0  500B               	movf	(___aodiv@divisor+1)^0,w,c
  2479  0025E2  5803               	subwfb	(___aodiv@dividend+1)^0,w,c
  2480  0025E4  500C               	movf	(___aodiv@divisor+2)^0,w,c
  2481  0025E6  5804               	subwfb	(___aodiv@dividend+2)^0,w,c
  2482  0025E8  500D               	movf	(___aodiv@divisor+3)^0,w,c
  2483  0025EA  5805               	subwfb	(___aodiv@dividend+3)^0,w,c
  2484  0025EC  500E               	movf	(___aodiv@divisor+4)^0,w,c
  2485  0025EE  5806               	subwfb	(___aodiv@dividend+4)^0,w,c
  2486  0025F0  500F               	movf	(___aodiv@divisor+5)^0,w,c
  2487  0025F2  5807               	subwfb	(___aodiv@dividend+5)^0,w,c
  2488  0025F4  5010               	movf	(___aodiv@divisor+6)^0,w,c
  2489  0025F6  5808               	subwfb	(___aodiv@dividend+6)^0,w,c
  2490  0025F8  5011               	movf	(___aodiv@divisor+7)^0,w,c
  2491  0025FA  5809               	subwfb	(___aodiv@dividend+7)^0,w,c
  2492  0025FC  A0D8               	btfss	status,0,c
  2493  0025FE  EF03  F013         	goto	u1381
  2494  002602  EF05  F013         	goto	u1380
  2495  002606                     u1381:
  2496  002606  EF16  F013         	goto	l2338
  2497  00260A                     u1380:
  2498  00260A  500A               	movf	___aodiv@divisor^0,w,c
  2499  00260C  5E02               	subwf	___aodiv@dividend^0,f,c
  2500  00260E  500B               	movf	(___aodiv@divisor+1)^0,w,c
  2501  002610  5A03               	subwfb	(___aodiv@dividend+1)^0,f,c
  2502  002612  500C               	movf	(___aodiv@divisor+2)^0,w,c
  2503  002614  5A04               	subwfb	(___aodiv@dividend+2)^0,f,c
  2504  002616  500D               	movf	(___aodiv@divisor+3)^0,w,c
  2505  002618  5A05               	subwfb	(___aodiv@dividend+3)^0,f,c
  2506  00261A  500E               	movf	(___aodiv@divisor+4)^0,w,c
  2507  00261C  5A06               	subwfb	(___aodiv@dividend+4)^0,f,c
  2508  00261E  500F               	movf	(___aodiv@divisor+5)^0,w,c
  2509  002620  5A07               	subwfb	(___aodiv@dividend+5)^0,f,c
  2510  002622  5010               	movf	(___aodiv@divisor+6)^0,w,c
  2511  002624  5A08               	subwfb	(___aodiv@dividend+6)^0,f,c
  2512  002626  5011               	movf	(___aodiv@divisor+7)^0,w,c
  2513  002628  5A09               	subwfb	(___aodiv@dividend+7)^0,f,c
  2514  00262A  8014               	bsf	___aodiv@quotient^0,0,c
  2515  00262C                     l2338:
  2516  00262C  90D8               	bcf	status,0,c
  2517  00262E  3211               	rrcf	(___aodiv@divisor+7)^0,f,c
  2518  002630  3210               	rrcf	(___aodiv@divisor+6)^0,f,c
  2519  002632  320F               	rrcf	(___aodiv@divisor+5)^0,f,c
  2520  002634  320E               	rrcf	(___aodiv@divisor+4)^0,f,c
  2521  002636  320D               	rrcf	(___aodiv@divisor+3)^0,f,c
  2522  002638  320C               	rrcf	(___aodiv@divisor+2)^0,f,c
  2523  00263A  320B               	rrcf	(___aodiv@divisor+1)^0,f,c
  2524  00263C  320A               	rrcf	___aodiv@divisor^0,f,c
  2525  00263E  2E12               	decfsz	___aodiv@counter^0,f,c
  2526  002640  EFE5  F012         	goto	l2330
  2527  002644                     l2342:
  2528  002644  5013               	movf	___aodiv@sign^0,w,c
  2529  002646  B4D8               	btfsc	status,2,c
  2530  002648  EF28  F013         	goto	u1391
  2531  00264C  EF2A  F013         	goto	u1390
  2532  002650                     u1391:
  2533  002650  EF3A  F013         	goto	l2346
  2534  002654                     u1390:
  2535  002654  1E1B               	comf	(___aodiv@quotient+7)^0,f,c
  2536  002656  1E1A               	comf	(___aodiv@quotient+6)^0,f,c
  2537  002658  1E19               	comf	(___aodiv@quotient+5)^0,f,c
  2538  00265A  1E18               	comf	(___aodiv@quotient+4)^0,f,c
  2539  00265C  1E17               	comf	(___aodiv@quotient+3)^0,f,c
  2540  00265E  1E16               	comf	(___aodiv@quotient+2)^0,f,c
  2541  002660  1E15               	comf	(___aodiv@quotient+1)^0,f,c
  2542  002662  6C14               	negf	___aodiv@quotient^0,c
  2543  002664  0E00               	movlw	0
  2544  002666  2215               	addwfc	(___aodiv@quotient+1)^0,f,c
  2545  002668  2216               	addwfc	(___aodiv@quotient+2)^0,f,c
  2546  00266A  2217               	addwfc	(___aodiv@quotient+3)^0,f,c
  2547  00266C  2218               	addwfc	(___aodiv@quotient+4)^0,f,c
  2548  00266E  2219               	addwfc	(___aodiv@quotient+5)^0,f,c
  2549  002670  221A               	addwfc	(___aodiv@quotient+6)^0,f,c
  2550  002672  221B               	addwfc	(___aodiv@quotient+7)^0,f,c
  2551  002674                     l2346:
  2552  002674  C014  F002         	movff	___aodiv@quotient,?___aodiv
  2553  002678  C015  F003         	movff	___aodiv@quotient+1,?___aodiv+1
  2554  00267C  C016  F004         	movff	___aodiv@quotient+2,?___aodiv+2
  2555  002680  C017  F005         	movff	___aodiv@quotient+3,?___aodiv+3
  2556  002684  C018  F006         	movff	___aodiv@quotient+4,?___aodiv+4
  2557  002688  C019  F007         	movff	___aodiv@quotient+5,?___aodiv+5
  2558  00268C  C01A  F008         	movff	___aodiv@quotient+6,?___aodiv+6
  2559  002690  C01B  F009         	movff	___aodiv@quotient+7,?___aodiv+7
  2560  002694  0012               	return		;funcret
  2561  002696                     __end_of___aodiv:
  2562                           	callstack 0
  2563                           
  2564 ;; *************** function _TMR0_StartTimer *****************
  2565 ;; Defined at:
  2566 ;;		line 88 in file "mcc_generated_files/tmr0.c"
  2567 ;; Parameters:    Size  Location     Type
  2568 ;;		None
  2569 ;; Auto vars:     Size  Location     Type
  2570 ;;		None
  2571 ;; Return value:  Size  Location     Type
  2572 ;;                  1    wreg      void 
  2573 ;; Registers used:
  2574 ;;		None
  2575 ;; Tracked objects:
  2576 ;;		On entry : 0/0
  2577 ;;		On exit  : 0/0
  2578 ;;		Unchanged: 0/0
  2579 ;; Data sizes:     COMRAM   BANK0   BANK1   BANK2   BANK3   BANK4   BANK5   BANK6   BANK7   BANK8   BANK9  BANK10  BANK1
      +1  BANK12  BANK13  BANK14  BANK15  BANK16  BANK17  BANK18  BANK19  BANK20  BANK21  BANK22  BANK23  BANK24  BANK25  BANK2
      +6  BANK27  BANK28  BANK29  BANK30  BANK31
  2580 ;;      Params:         0       0       0       0       0       0       0       0       0       0       0       0       
      +0       0       0       0       0       0       0       0       0       0       0       0       0       0       0       
      +0       0       0       0       0       0
  2581 ;;      Locals:         0       0       0       0       0       0       0       0       0       0       0       0       
      +0       0       0       0       0       0       0       0       0       0       0       0       0       0       0       
      +0       0       0       0       0       0
  2582 ;;      Temps:          0       0       0       0       0       0       0       0       0       0       0       0       
      +0       0       0       0       0       0       0       0       0       0       0       0       0       0       0       
      +0       0       0       0       0       0
  2583 ;;      Totals:         0       0       0       0       0       0       0       0       0       0       0       0       
      +0       0       0       0       0       0       0       0       0       0       0       0       0       0       0       
      +0       0       0       0       0       0
  2584 ;;Total ram usage:        0 bytes
  2585 ;; Hardware stack levels used:    1
  2586 ;; Hardware stack levels required when called:    3
  2587 ;; This function calls:
  2588 ;;		Nothing
  2589 ;; This function is called by:
  2590 ;;		_main
  2591 ;; This function uses a non-reentrant model
  2592 ;;
  2593                           
  2594                           	psect	text14
  2595  002E50                     __ptext14:
  2596                           	callstack 0
  2597  002E50                     _TMR0_StartTimer:
  2598                           	callstack 27
  2599  002E50                     
  2600                           ;mcc_generated_files/tmr0.c: 91:     T0CON0bits.T0EN = 1;
  2601  002E50  8EB8               	bsf	184,7,c	;volatile
  2602  002E52  0012               	return		;funcret
  2603  002E54                     __end_of_TMR0_StartTimer:
  2604                           	callstack 0
  2605                           
  2606 ;; *************** function _SYSTEM_Initialize *****************
  2607 ;; Defined at:
  2608 ;;		line 50 in file "mcc_generated_files/mcc.c"
  2609 ;; Parameters:    Size  Location     Type
  2610 ;;		None
  2611 ;; Auto vars:     Size  Location     Type
  2612 ;;		None
  2613 ;; Return value:  Size  Location     Type
  2614 ;;                  1    wreg      void 
  2615 ;; Registers used:
  2616 ;;		wreg, status,2, status,0, cstack
  2617 ;; Tracked objects:
  2618 ;;		On entry : 0/0
  2619 ;;		On exit  : 0/0
  2620 ;;		Unchanged: 0/0
  2621 ;; Data sizes:     COMRAM   BANK0   BANK1   BANK2   BANK3   BANK4   BANK5   BANK6   BANK7   BANK8   BANK9  BANK10  BANK1
      +1  BANK12  BANK13  BANK14  BANK15  BANK16  BANK17  BANK18  BANK19  BANK20  BANK21  BANK22  BANK23  BANK24  BANK25  BANK2
      +6  BANK27  BANK28  BANK29  BANK30  BANK31
  2622 ;;      Params:         0       0       0       0       0       0       0       0       0       0       0       0       
      +0       0       0       0       0       0       0       0       0       0       0       0       0       0       0       
      +0       0       0       0       0       0
  2623 ;;      Locals:         0       0       0       0       0       0       0       0       0       0       0       0       
      +0       0       0       0       0       0       0       0       0       0       0       0       0       0       0       
      +0       0       0       0       0       0
  2624 ;;      Temps:          0       0       0       0       0       0       0       0       0       0       0       0       
      +0       0       0       0       0       0       0       0       0       0       0       0       0       0       0       
      +0       0       0       0       0       0
  2625 ;;      Totals:         0       0       0       0       0       0       0       0       0       0       0       0       
      +0       0       0       0       0       0       0       0       0       0       0       0       0       0       0       
      +0       0       0       0       0       0
  2626 ;;Total ram usage:        0 bytes
  2627 ;; Hardware stack levels used:    1
  2628 ;; Hardware stack levels required when called:    5
  2629 ;; This function calls:
  2630 ;;		_ADCC_Initialize
  2631 ;;		_INTERRUPT_Initialize
  2632 ;;		_OSCILLATOR_Initialize
  2633 ;;		_PIN_MANAGER_Initialize
  2634 ;;		_PMD_Initialize
  2635 ;;		_TMR0_Initialize
  2636 ;;		_UART1_Initialize
  2637 ;; This function is called by:
  2638 ;;		_main
  2639 ;; This function uses a non-reentrant model
  2640 ;;
  2641                           
  2642                           	psect	text15
  2643  002D82                     __ptext15:
  2644                           	callstack 0
  2645  002D82                     _SYSTEM_Initialize:
  2646                           	callstack 25
  2647  002D82                     
  2648                           ;mcc_generated_files/mcc.c: 52:     INTERRUPT_Initialize();
  2649  002D82  EC2A  F017         	call	_INTERRUPT_Initialize	;wreg free
  2650  002D86                     
  2651                           ;mcc_generated_files/mcc.c: 53:     PMD_Initialize();
  2652  002D86  EC8D  F016         	call	_PMD_Initialize	;wreg free
  2653  002D8A                     
  2654                           ;mcc_generated_files/mcc.c: 54:     PIN_MANAGER_Initialize();
  2655  002D8A  ECAB  F014         	call	_PIN_MANAGER_Initialize	;wreg free
  2656  002D8E                     
  2657                           ;mcc_generated_files/mcc.c: 55:     OSCILLATOR_Initialize();
  2658  002D8E  ECDD  F016         	call	_OSCILLATOR_Initialize	;wreg free
  2659  002D92                     
  2660                           ;mcc_generated_files/mcc.c: 56:     ADCC_Initialize();
  2661  002D92  ECAA  F015         	call	_ADCC_Initialize	;wreg free
  2662  002D96                     
  2663                           ;mcc_generated_files/mcc.c: 57:     TMR0_Initialize();
  2664  002D96  EC79  F016         	call	_TMR0_Initialize	;wreg free
  2665  002D9A                     
  2666                           ;mcc_generated_files/mcc.c: 58:     UART1_Initialize();
  2667  002D9A  EC3B  F015         	call	_UART1_Initialize	;wreg free
  2668  002D9E  0012               	return		;funcret
  2669  002DA0                     __end_of_SYSTEM_Initialize:
  2670                           	callstack 0
  2671                           
  2672 ;; *************** function _UART1_Initialize *****************
  2673 ;; Defined at:
  2674 ;;		line 66 in file "mcc_generated_files/uart1.c"
  2675 ;; Parameters:    Size  Location     Type
  2676 ;;		None
  2677 ;; Auto vars:     Size  Location     Type
  2678 ;;		None
  2679 ;; Return value:  Size  Location     Type
  2680 ;;                  1    wreg      void 
  2681 ;; Registers used:
  2682 ;;		wreg, status,2, status,0, cstack
  2683 ;; Tracked objects:
  2684 ;;		On entry : 0/0
  2685 ;;		On exit  : 0/0
  2686 ;;		Unchanged: 0/0
  2687 ;; Data sizes:     COMRAM   BANK0   BANK1   BANK2   BANK3   BANK4   BANK5   BANK6   BANK7   BANK8   BANK9  BANK10  BANK1
      +1  BANK12  BANK13  BANK14  BANK15  BANK16  BANK17  BANK18  BANK19  BANK20  BANK21  BANK22  BANK23  BANK24  BANK25  BANK2
      +6  BANK27  BANK28  BANK29  BANK30  BANK31
  2688 ;;      Params:         0       0       0       0       0       0       0       0       0       0       0       0       
      +0       0       0       0       0       0       0       0       0       0       0       0       0       0       0       
      +0       0       0       0       0       0
  2689 ;;      Locals:         0       0       0       0       0       0       0       0       0       0       0       0       
      +0       0       0       0       0       0       0       0       0       0       0       0       0       0       0       
      +0       0       0       0       0       0
  2690 ;;      Temps:          0       0       0       0       0       0       0       0       0       0       0       0       
      +0       0       0       0       0       0       0       0       0       0       0       0       0       0       0       
      +0       0       0       0       0       0
  2691 ;;      Totals:         0       0       0       0       0       0       0       0       0       0       0       0       
      +0       0       0       0       0       0       0       0       0       0       0       0       0       0       0       
      +0       0       0       0       0       0
  2692 ;;Total ram usage:        0 bytes
  2693 ;; Hardware stack levels used:    1
  2694 ;; Hardware stack levels required when called:    4
  2695 ;; This function calls:
  2696 ;;		_UART1_SetErrorHandler
  2697 ;;		_UART1_SetFramingErrorHandler
  2698 ;;		_UART1_SetOverrunErrorHandler
  2699 ;; This function is called by:
  2700 ;;		_SYSTEM_Initialize
  2701 ;; This function uses a non-reentrant model
  2702 ;;
  2703                           
  2704                           	psect	text16
  2705  002A76                     __ptext16:
  2706                           	callstack 0
  2707  002A76                     _UART1_Initialize:
  2708                           	callstack 25
  2709  002A76                     
  2710                           ;mcc_generated_files/uart1.c: 73:     U1P1L = 0x00;
  2711  002A76  0E00               	movlw	0
  2712  002A78  013D               	movlb	61	; () banked
  2713  002A7A  6FEC               	movwf	236,b	;volatile
  2714                           
  2715                           ;mcc_generated_files/uart1.c: 76:     U1P1H = 0x00;
  2716  002A7C  0E00               	movlw	0
  2717  002A7E  6FED               	movwf	237,b	;volatile
  2718                           
  2719                           ;mcc_generated_files/uart1.c: 79:     U1P2L = 0x00;
  2720  002A80  0E00               	movlw	0
  2721  002A82  6FEE               	movwf	238,b	;volatile
  2722                           
  2723                           ;mcc_generated_files/uart1.c: 82:     U1P2H = 0x00;
  2724  002A84  0E00               	movlw	0
  2725  002A86  6FEF               	movwf	239,b	;volatile
  2726                           
  2727                           ;mcc_generated_files/uart1.c: 85:     U1P3L = 0x00;
  2728  002A88  0E00               	movlw	0
  2729  002A8A  6FF0               	movwf	240,b	;volatile
  2730                           
  2731                           ;mcc_generated_files/uart1.c: 88:     U1P3H = 0x00;
  2732  002A8C  0E00               	movlw	0
  2733  002A8E  6FF1               	movwf	241,b	;volatile
  2734                           
  2735                           ;mcc_generated_files/uart1.c: 91:     U1CON0 = 0xB0;
  2736  002A90  0EB0               	movlw	176
  2737  002A92  6FF2               	movwf	242,b	;volatile
  2738                           
  2739                           ;mcc_generated_files/uart1.c: 94:     U1CON1 = 0x80;
  2740  002A94  0E80               	movlw	128
  2741  002A96  6FF3               	movwf	243,b	;volatile
  2742                           
  2743                           ;mcc_generated_files/uart1.c: 97:     U1CON2 = 0x00;
  2744  002A98  0E00               	movlw	0
  2745  002A9A  6FF4               	movwf	244,b	;volatile
  2746                           
  2747                           ;mcc_generated_files/uart1.c: 100:     U1BRGL = 0x19;
  2748  002A9C  0E19               	movlw	25
  2749  002A9E  6FF5               	movwf	245,b	;volatile
  2750                           
  2751                           ;mcc_generated_files/uart1.c: 103:     U1BRGH = 0x00;
  2752  002AA0  0E00               	movlw	0
  2753  002AA2  6FF6               	movwf	246,b	;volatile
  2754                           
  2755                           ;mcc_generated_files/uart1.c: 106:     U1FIFO = 0x00;
  2756  002AA4  0E00               	movlw	0
  2757  002AA6  6FF7               	movwf	247,b	;volatile
  2758                           
  2759                           ;mcc_generated_files/uart1.c: 109:     U1UIR = 0x00;
  2760  002AA8  0E00               	movlw	0
  2761  002AAA  6FF8               	movwf	248,b	;volatile
  2762                           
  2763                           ;mcc_generated_files/uart1.c: 112:     U1ERRIR = 0x00;
  2764  002AAC  0E00               	movlw	0
  2765  002AAE  6FF9               	movwf	249,b	;volatile
  2766                           
  2767                           ;mcc_generated_files/uart1.c: 115:     U1ERRIE = 0x00;
  2768  002AB0  0E00               	movlw	0
  2769  002AB2  6FFA               	movwf	250,b	;volatile
  2770  002AB4                     
  2771                           ; BSR set to: 61
  2772                           ;mcc_generated_files/uart1.c: 118:     UART1_SetFramingErrorHandler(UART1_DefaultFraming
      +                          ErrorHandler);
  2773  002AB4  0E00               	movlw	0
  2774  002AB6  6E02               	movwf	UART1_SetFramingErrorHandler@interruptHandler^0,c
  2775  002AB8  0E00               	movlw	0
  2776  002ABA  6E03               	movwf	(UART1_SetFramingErrorHandler@interruptHandler+1)^0,c
  2777  002ABC  0E00               	movlw	0
  2778  002ABE  6E04               	movwf	(UART1_SetFramingErrorHandler@interruptHandler+2)^0,c
  2779  002AC0  EC0E  F017         	call	_UART1_SetFramingErrorHandler	;wreg free
  2780  002AC4                     
  2781                           ;mcc_generated_files/uart1.c: 119:     UART1_SetOverrunErrorHandler(UART1_DefaultOverrun
      +                          ErrorHandler);
  2782  002AC4  0E00               	movlw	0
  2783  002AC6  6E02               	movwf	UART1_SetOverrunErrorHandler@interruptHandler^0,c
  2784  002AC8  0E00               	movlw	0
  2785  002ACA  6E03               	movwf	(UART1_SetOverrunErrorHandler@interruptHandler+1)^0,c
  2786  002ACC  0E00               	movlw	0
  2787  002ACE  6E04               	movwf	(UART1_SetOverrunErrorHandler@interruptHandler+2)^0,c
  2788  002AD0  EC07  F017         	call	_UART1_SetOverrunErrorHandler	;wreg free
  2789  002AD4                     
  2790                           ;mcc_generated_files/uart1.c: 120:     UART1_SetErrorHandler(UART1_DefaultErrorHandler);
  2791  002AD4  0E00               	movlw	0
  2792  002AD6  6E02               	movwf	UART1_SetErrorHandler@interruptHandler^0,c
  2793  002AD8  0E00               	movlw	0
  2794  002ADA  6E03               	movwf	(UART1_SetErrorHandler@interruptHandler+1)^0,c
  2795  002ADC  0E00               	movlw	0
  2796  002ADE  6E04               	movwf	(UART1_SetErrorHandler@interruptHandler+2)^0,c
  2797  002AE0  EC15  F017         	call	_UART1_SetErrorHandler	;wreg free
  2798  002AE4                     
  2799                           ;mcc_generated_files/uart1.c: 122:     uart1RxLastError.status = 0;
  2800  002AE4  0E00               	movlw	0
  2801  002AE6  6E5E               	movwf	_uart1RxLastError^0,c	;volatile
  2802  002AE8  0012               	return		;funcret
  2803  002AEA                     __end_of_UART1_Initialize:
  2804                           	callstack 0
  2805                           
  2806 ;; *************** function _UART1_SetOverrunErrorHandler *****************
  2807 ;; Defined at:
  2808 ;;		line 204 in file "mcc_generated_files/uart1.c"
  2809 ;; Parameters:    Size  Location     Type
  2810 ;;  interruptHan    3    1[COMRAM] PTR FTN()void 
  2811 ;;		 -> UART1_DefaultOverrunErrorHandler(1), 
  2812 ;; Auto vars:     Size  Location     Type
  2813 ;;		None
  2814 ;; Return value:  Size  Location     Type
  2815 ;;                  1    wreg      void 
  2816 ;; Registers used:
  2817 ;;		wreg, status,2, status,0
  2818 ;; Tracked objects:
  2819 ;;		On entry : 0/0
  2820 ;;		On exit  : 0/0
  2821 ;;		Unchanged: 0/0
  2822 ;; Data sizes:     COMRAM   BANK0   BANK1   BANK2   BANK3   BANK4   BANK5   BANK6   BANK7   BANK8   BANK9  BANK10  BANK1
      +1  BANK12  BANK13  BANK14  BANK15  BANK16  BANK17  BANK18  BANK19  BANK20  BANK21  BANK22  BANK23  BANK24  BANK25  BANK2
      +6  BANK27  BANK28  BANK29  BANK30  BANK31
  2823 ;;      Params:         3       0       0       0       0       0       0       0       0       0       0       0       
      +0       0       0       0       0       0       0       0       0       0       0       0       0       0       0       
      +0       0       0       0       0       0
  2824 ;;      Locals:         0       0       0       0       0       0       0       0       0       0       0       0       
      +0       0       0       0       0       0       0       0       0       0       0       0       0       0       0       
      +0       0       0       0       0       0
  2825 ;;      Temps:          0       0       0       0       0       0       0       0       0       0       0       0       
      +0       0       0       0       0       0       0       0       0       0       0       0       0       0       0       
      +0       0       0       0       0       0
  2826 ;;      Totals:         3       0       0       0       0       0       0       0       0       0       0       0       
      +0       0       0       0       0       0       0       0       0       0       0       0       0       0       0       
      +0       0       0       0       0       0
  2827 ;;Total ram usage:        3 bytes
  2828 ;; Hardware stack levels used:    1
  2829 ;; Hardware stack levels required when called:    3
  2830 ;; This function calls:
  2831 ;;		Nothing
  2832 ;; This function is called by:
  2833 ;;		_UART1_Initialize
  2834 ;; This function uses a non-reentrant model
  2835 ;;
  2836                           
  2837                           	psect	text17
  2838  002E0E                     __ptext17:
  2839                           	callstack 0
  2840  002E0E                     _UART1_SetOverrunErrorHandler:
  2841                           	callstack 25
  2842  002E0E                     
  2843                           ;mcc_generated_files/uart1.c: 205:     UART1_OverrunErrorHandler = interruptHandler;
  2844  002E0E  C002  F08E         	movff	UART1_SetOverrunErrorHandler@interruptHandler,_UART1_OverrunErrorHandler
  2845  002E12  C003  F08F         	movff	UART1_SetOverrunErrorHandler@interruptHandler+1,_UART1_OverrunErrorHandler+1
  2846  002E16  C004  F090         	movff	UART1_SetOverrunErrorHandler@interruptHandler+2,_UART1_OverrunErrorHandler+2
  2847  002E1A  0012               	return		;funcret
  2848  002E1C                     __end_of_UART1_SetOverrunErrorHandler:
  2849                           	callstack 0
  2850                           
  2851 ;; *************** function _UART1_SetFramingErrorHandler *****************
  2852 ;; Defined at:
  2853 ;;		line 200 in file "mcc_generated_files/uart1.c"
  2854 ;; Parameters:    Size  Location     Type
  2855 ;;  interruptHan    3    1[COMRAM] PTR FTN()void 
  2856 ;;		 -> UART1_DefaultFramingErrorHandler(1), 
  2857 ;; Auto vars:     Size  Location     Type
  2858 ;;		None
  2859 ;; Return value:  Size  Location     Type
  2860 ;;                  1    wreg      void 
  2861 ;; Registers used:
  2862 ;;		wreg, status,2, status,0
  2863 ;; Tracked objects:
  2864 ;;		On entry : 0/0
  2865 ;;		On exit  : 0/0
  2866 ;;		Unchanged: 0/0
  2867 ;; Data sizes:     COMRAM   BANK0   BANK1   BANK2   BANK3   BANK4   BANK5   BANK6   BANK7   BANK8   BANK9  BANK10  BANK1
      +1  BANK12  BANK13  BANK14  BANK15  BANK16  BANK17  BANK18  BANK19  BANK20  BANK21  BANK22  BANK23  BANK24  BANK25  BANK2
      +6  BANK27  BANK28  BANK29  BANK30  BANK31
  2868 ;;      Params:         3       0       0       0       0       0       0       0       0       0       0       0       
      +0       0       0       0       0       0       0       0       0       0       0       0       0       0       0       
      +0       0       0       0       0       0
  2869 ;;      Locals:         0       0       0       0       0       0       0       0       0       0       0       0       
      +0       0       0       0       0       0       0       0       0       0       0       0       0       0       0       
      +0       0       0       0       0       0
  2870 ;;      Temps:          0       0       0       0       0       0       0       0       0       0       0       0       
      +0       0       0       0       0       0       0       0       0       0       0       0       0       0       0       
      +0       0       0       0       0       0
  2871 ;;      Totals:         3       0       0       0       0       0       0       0       0       0       0       0       
      +0       0       0       0       0       0       0       0       0       0       0       0       0       0       0       
      +0       0       0       0       0       0
  2872 ;;Total ram usage:        3 bytes
  2873 ;; Hardware stack levels used:    1
  2874 ;; Hardware stack levels required when called:    3
  2875 ;; This function calls:
  2876 ;;		Nothing
  2877 ;; This function is called by:
  2878 ;;		_UART1_Initialize
  2879 ;; This function uses a non-reentrant model
  2880 ;;
  2881                           
  2882                           	psect	text18
  2883  002E1C                     __ptext18:
  2884                           	callstack 0
  2885  002E1C                     _UART1_SetFramingErrorHandler:
  2886                           	callstack 25
  2887  002E1C                     
  2888                           ;mcc_generated_files/uart1.c: 201:     UART1_FramingErrorHandler = interruptHandler;
  2889  002E1C  C002  F091         	movff	UART1_SetFramingErrorHandler@interruptHandler,_UART1_FramingErrorHandler
  2890  002E20  C003  F092         	movff	UART1_SetFramingErrorHandler@interruptHandler+1,_UART1_FramingErrorHandler+1
  2891  002E24  C004  F093         	movff	UART1_SetFramingErrorHandler@interruptHandler+2,_UART1_FramingErrorHandler+2
  2892  002E28  0012               	return		;funcret
  2893  002E2A                     __end_of_UART1_SetFramingErrorHandler:
  2894                           	callstack 0
  2895                           
  2896 ;; *************** function _UART1_SetErrorHandler *****************
  2897 ;; Defined at:
  2898 ;;		line 208 in file "mcc_generated_files/uart1.c"
  2899 ;; Parameters:    Size  Location     Type
  2900 ;;  interruptHan    3    1[COMRAM] PTR FTN()void 
  2901 ;;		 -> UART1_DefaultErrorHandler(1), 
  2902 ;; Auto vars:     Size  Location     Type
  2903 ;;		None
  2904 ;; Return value:  Size  Location     Type
  2905 ;;                  1    wreg      void 
  2906 ;; Registers used:
  2907 ;;		wreg, status,2, status,0
  2908 ;; Tracked objects:
  2909 ;;		On entry : 0/0
  2910 ;;		On exit  : 0/0
  2911 ;;		Unchanged: 0/0
  2912 ;; Data sizes:     COMRAM   BANK0   BANK1   BANK2   BANK3   BANK4   BANK5   BANK6   BANK7   BANK8   BANK9  BANK10  BANK1
      +1  BANK12  BANK13  BANK14  BANK15  BANK16  BANK17  BANK18  BANK19  BANK20  BANK21  BANK22  BANK23  BANK24  BANK25  BANK2
      +6  BANK27  BANK28  BANK29  BANK30  BANK31
  2913 ;;      Params:         3       0       0       0       0       0       0       0       0       0       0       0       
      +0       0       0       0       0       0       0       0       0       0       0       0       0       0       0       
      +0       0       0       0       0       0
  2914 ;;      Locals:         0       0       0       0       0       0       0       0       0       0       0       0       
      +0       0       0       0       0       0       0       0       0       0       0       0       0       0       0       
      +0       0       0       0       0       0
  2915 ;;      Temps:          0       0       0       0       0       0       0       0       0       0       0       0       
      +0       0       0       0       0       0       0       0       0       0       0       0       0       0       0       
      +0       0       0       0       0       0
  2916 ;;      Totals:         3       0       0       0       0       0       0       0       0       0       0       0       
      +0       0       0       0       0       0       0       0       0       0       0       0       0       0       0       
      +0       0       0       0       0       0
  2917 ;;Total ram usage:        3 bytes
  2918 ;; Hardware stack levels used:    1
  2919 ;; Hardware stack levels required when called:    3
  2920 ;; This function calls:
  2921 ;;		Nothing
  2922 ;; This function is called by:
  2923 ;;		_UART1_Initialize
  2924 ;; This function uses a non-reentrant model
  2925 ;;
  2926                           
  2927                           	psect	text19
  2928  002E2A                     __ptext19:
  2929                           	callstack 0
  2930  002E2A                     _UART1_SetErrorHandler:
  2931                           	callstack 25
  2932  002E2A                     
  2933                           ;mcc_generated_files/uart1.c: 209:     UART1_ErrorHandler = interruptHandler;
  2934  002E2A  C002  F08B         	movff	UART1_SetErrorHandler@interruptHandler,_UART1_ErrorHandler
  2935  002E2E  C003  F08C         	movff	UART1_SetErrorHandler@interruptHandler+1,_UART1_ErrorHandler+1
  2936  002E32  C004  F08D         	movff	UART1_SetErrorHandler@interruptHandler+2,_UART1_ErrorHandler+2
  2937  002E36  0012               	return		;funcret
  2938  002E38                     __end_of_UART1_SetErrorHandler:
  2939                           	callstack 0
  2940                           
  2941 ;; *************** function _TMR0_Initialize *****************
  2942 ;; Defined at:
  2943 ;;		line 62 in file "mcc_generated_files/tmr0.c"
  2944 ;; Parameters:    Size  Location     Type
  2945 ;;		None
  2946 ;; Auto vars:     Size  Location     Type
  2947 ;;		None
  2948 ;; Return value:  Size  Location     Type
  2949 ;;                  1    wreg      void 
  2950 ;; Registers used:
  2951 ;;		wreg, status,2, status,0, cstack
  2952 ;; Tracked objects:
  2953 ;;		On entry : 0/0
  2954 ;;		On exit  : 0/0
  2955 ;;		Unchanged: 0/0
  2956 ;; Data sizes:     COMRAM   BANK0   BANK1   BANK2   BANK3   BANK4   BANK5   BANK6   BANK7   BANK8   BANK9  BANK10  BANK1
      +1  BANK12  BANK13  BANK14  BANK15  BANK16  BANK17  BANK18  BANK19  BANK20  BANK21  BANK22  BANK23  BANK24  BANK25  BANK2
      +6  BANK27  BANK28  BANK29  BANK30  BANK31
  2957 ;;      Params:         0       0       0       0       0       0       0       0       0       0       0       0       
      +0       0       0       0       0       0       0       0       0       0       0       0       0       0       0       
      +0       0       0       0       0       0
  2958 ;;      Locals:         0       0       0       0       0       0       0       0       0       0       0       0       
      +0       0       0       0       0       0       0       0       0       0       0       0       0       0       0       
      +0       0       0       0       0       0
  2959 ;;      Temps:          0       0       0       0       0       0       0       0       0       0       0       0       
      +0       0       0       0       0       0       0       0       0       0       0       0       0       0       0       
      +0       0       0       0       0       0
  2960 ;;      Totals:         0       0       0       0       0       0       0       0       0       0       0       0       
      +0       0       0       0       0       0       0       0       0       0       0       0       0       0       0       
      +0       0       0       0       0       0
  2961 ;;Total ram usage:        0 bytes
  2962 ;; Hardware stack levels used:    1
  2963 ;; Hardware stack levels required when called:    4
  2964 ;; This function calls:
  2965 ;;		_TMR0_SetInterruptHandler
  2966 ;; This function is called by:
  2967 ;;		_SYSTEM_Initialize
  2968 ;;		_main
  2969 ;; This function uses a non-reentrant model
  2970 ;;
  2971                           
  2972                           	psect	text20
  2973  002CF2                     __ptext20:
  2974                           	callstack 0
  2975  002CF2                     _TMR0_Initialize:
  2976                           	callstack 26
  2977  002CF2                     
  2978                           ;mcc_generated_files/tmr0.c: 67:     T0CON1 = 0x68;
  2979  002CF2  0E68               	movlw	104
  2980  002CF4  6EB9               	movwf	185,c	;volatile
  2981                           
  2982                           ;mcc_generated_files/tmr0.c: 70:     TMR0H = 0x02;
  2983  002CF6  0E02               	movlw	2
  2984  002CF8  6EB7               	movwf	183,c	;volatile
  2985                           
  2986                           ;mcc_generated_files/tmr0.c: 73:     TMR0L = 0x00;
  2987  002CFA  0E00               	movlw	0
  2988  002CFC  6EB6               	movwf	182,c	;volatile
  2989  002CFE                     
  2990                           ;mcc_generated_files/tmr0.c: 76:     PIR3bits.TMR0IF = 0;
  2991  002CFE  0139               	movlb	57	; () banked
  2992  002D00  9FA3               	bcf	163,7,b	;volatile
  2993  002D02                     
  2994                           ; BSR set to: 57
  2995                           ;mcc_generated_files/tmr0.c: 79:     PIE3bits.TMR0IE = 1;
  2996  002D02  8F93               	bsf	147,7,b	;volatile
  2997  002D04                     
  2998                           ; BSR set to: 57
  2999                           ;mcc_generated_files/tmr0.c: 82:     TMR0_SetInterruptHandler(TMR0_DefaultInterruptHandl
      +                          er);
  3000  002D04  0E58               	movlw	low _TMR0_DefaultInterruptHandler
  3001  002D06  6E02               	movwf	TMR0_SetInterruptHandler@InterruptHandler^0,c
  3002  002D08  0E2E               	movlw	high _TMR0_DefaultInterruptHandler
  3003  002D0A  6E03               	movwf	(TMR0_SetInterruptHandler@InterruptHandler+1)^0,c
  3004  002D0C  0E00               	movlw	low (_TMR0_DefaultInterruptHandler shr (0+16))
  3005  002D0E  6E04               	movwf	(TMR0_SetInterruptHandler@InterruptHandler+2)^0,c
  3006  002D10  EC1C  F017         	call	_TMR0_SetInterruptHandler	;wreg free
  3007  002D14                     
  3008                           ;mcc_generated_files/tmr0.c: 85:     T0CON0 = 0x8E;
  3009  002D14  0E8E               	movlw	142
  3010  002D16  6EB8               	movwf	184,c	;volatile
  3011  002D18  0012               	return		;funcret
  3012  002D1A                     __end_of_TMR0_Initialize:
  3013                           	callstack 0
  3014                           
  3015 ;; *************** function _TMR0_SetInterruptHandler *****************
  3016 ;; Defined at:
  3017 ;;		line 136 in file "mcc_generated_files/tmr0.c"
  3018 ;; Parameters:    Size  Location     Type
  3019 ;;  InterruptHan    3    1[COMRAM] PTR FTN()void 
  3020 ;;		 -> TMR0_DefaultInterruptHandler(1), 
  3021 ;; Auto vars:     Size  Location     Type
  3022 ;;		None
  3023 ;; Return value:  Size  Location     Type
  3024 ;;                  1    wreg      void 
  3025 ;; Registers used:
  3026 ;;		wreg, status,2, status,0
  3027 ;; Tracked objects:
  3028 ;;		On entry : 0/0
  3029 ;;		On exit  : 0/0
  3030 ;;		Unchanged: 0/0
  3031 ;; Data sizes:     COMRAM   BANK0   BANK1   BANK2   BANK3   BANK4   BANK5   BANK6   BANK7   BANK8   BANK9  BANK10  BANK1
      +1  BANK12  BANK13  BANK14  BANK15  BANK16  BANK17  BANK18  BANK19  BANK20  BANK21  BANK22  BANK23  BANK24  BANK25  BANK2
      +6  BANK27  BANK28  BANK29  BANK30  BANK31
  3032 ;;      Params:         3       0       0       0       0       0       0       0       0       0       0       0       
      +0       0       0       0       0       0       0       0       0       0       0       0       0       0       0       
      +0       0       0       0       0       0
  3033 ;;      Locals:         0       0       0       0       0       0       0       0       0       0       0       0       
      +0       0       0       0       0       0       0       0       0       0       0       0       0       0       0       
      +0       0       0       0       0       0
  3034 ;;      Temps:          0       0       0       0       0       0       0       0       0       0       0       0       
      +0       0       0       0       0       0       0       0       0       0       0       0       0       0       0       
      +0       0       0       0       0       0
  3035 ;;      Totals:         3       0       0       0       0       0       0       0       0       0       0       0       
      +0       0       0       0       0       0       0       0       0       0       0       0       0       0       0       
      +0       0       0       0       0       0
  3036 ;;Total ram usage:        3 bytes
  3037 ;; Hardware stack levels used:    1
  3038 ;; Hardware stack levels required when called:    3
  3039 ;; This function calls:
  3040 ;;		Nothing
  3041 ;; This function is called by:
  3042 ;;		_TMR0_Initialize
  3043 ;; This function uses a non-reentrant model
  3044 ;;
  3045                           
  3046                           	psect	text21
  3047  002E38                     __ptext21:
  3048                           	callstack 0
  3049  002E38                     _TMR0_SetInterruptHandler:
  3050                           	callstack 26
  3051  002E38                     
  3052                           ;mcc_generated_files/tmr0.c: 137:     TMR0_InterruptHandler = InterruptHandler;
  3053  002E38  C002  F088         	movff	TMR0_SetInterruptHandler@InterruptHandler,_TMR0_InterruptHandler
  3054  002E3C  C003  F089         	movff	TMR0_SetInterruptHandler@InterruptHandler+1,_TMR0_InterruptHandler+1
  3055  002E40  C004  F08A         	movff	TMR0_SetInterruptHandler@InterruptHandler+2,_TMR0_InterruptHandler+2
  3056  002E44  0012               	return		;funcret
  3057  002E46                     __end_of_TMR0_SetInterruptHandler:
  3058                           	callstack 0
  3059                           
  3060 ;; *************** function _PMD_Initialize *****************
  3061 ;; Defined at:
  3062 ;;		line 75 in file "mcc_generated_files/mcc.c"
  3063 ;; Parameters:    Size  Location     Type
  3064 ;;		None
  3065 ;; Auto vars:     Size  Location     Type
  3066 ;;		None
  3067 ;; Return value:  Size  Location     Type
  3068 ;;                  1    wreg      void 
  3069 ;; Registers used:
  3070 ;;		wreg, status,2
  3071 ;; Tracked objects:
  3072 ;;		On entry : 0/0
  3073 ;;		On exit  : 0/0
  3074 ;;		Unchanged: 0/0
  3075 ;; Data sizes:     COMRAM   BANK0   BANK1   BANK2   BANK3   BANK4   BANK5   BANK6   BANK7   BANK8   BANK9  BANK10  BANK1
      +1  BANK12  BANK13  BANK14  BANK15  BANK16  BANK17  BANK18  BANK19  BANK20  BANK21  BANK22  BANK23  BANK24  BANK25  BANK2
      +6  BANK27  BANK28  BANK29  BANK30  BANK31
  3076 ;;      Params:         0       0       0       0       0       0       0       0       0       0       0       0       
      +0       0       0       0       0       0       0       0       0       0       0       0       0       0       0       
      +0       0       0       0       0       0
  3077 ;;      Locals:         0       0       0       0       0       0       0       0       0       0       0       0       
      +0       0       0       0       0       0       0       0       0       0       0       0       0       0       0       
      +0       0       0       0       0       0
  3078 ;;      Temps:          0       0       0       0       0       0       0       0       0       0       0       0       
      +0       0       0       0       0       0       0       0       0       0       0       0       0       0       0       
      +0       0       0       0       0       0
  3079 ;;      Totals:         0       0       0       0       0       0       0       0       0       0       0       0       
      +0       0       0       0       0       0       0       0       0       0       0       0       0       0       0       
      +0       0       0       0       0       0
  3080 ;;Total ram usage:        0 bytes
  3081 ;; Hardware stack levels used:    1
  3082 ;; Hardware stack levels required when called:    3
  3083 ;; This function calls:
  3084 ;;		Nothing
  3085 ;; This function is called by:
  3086 ;;		_SYSTEM_Initialize
  3087 ;; This function uses a non-reentrant model
  3088 ;;
  3089                           
  3090                           	psect	text22
  3091  002D1A                     __ptext22:
  3092                           	callstack 0
  3093  002D1A                     _PMD_Initialize:
  3094                           	callstack 26
  3095  002D1A                     
  3096                           ;mcc_generated_files/mcc.c: 78:     PMD0 = 0x00;
  3097  002D1A  0E00               	movlw	0
  3098  002D1C  0139               	movlb	57	; () banked
  3099  002D1E  6FC0               	movwf	192,b	;volatile
  3100                           
  3101                           ;mcc_generated_files/mcc.c: 80:     PMD1 = 0x00;
  3102  002D20  0E00               	movlw	0
  3103  002D22  6FC1               	movwf	193,b	;volatile
  3104                           
  3105                           ;mcc_generated_files/mcc.c: 82:     PMD2 = 0x00;
  3106  002D24  0E00               	movlw	0
  3107  002D26  6FC2               	movwf	194,b	;volatile
  3108                           
  3109                           ;mcc_generated_files/mcc.c: 84:     PMD3 = 0x00;
  3110  002D28  0E00               	movlw	0
  3111  002D2A  6FC3               	movwf	195,b	;volatile
  3112                           
  3113                           ;mcc_generated_files/mcc.c: 86:     PMD4 = 0x00;
  3114  002D2C  0E00               	movlw	0
  3115  002D2E  6FC4               	movwf	196,b	;volatile
  3116                           
  3117                           ;mcc_generated_files/mcc.c: 88:     PMD5 = 0x00;
  3118  002D30  0E00               	movlw	0
  3119  002D32  6FC5               	movwf	197,b	;volatile
  3120                           
  3121                           ;mcc_generated_files/mcc.c: 90:     PMD6 = 0x00;
  3122  002D34  0E00               	movlw	0
  3123  002D36  6FC6               	movwf	198,b	;volatile
  3124                           
  3125                           ;mcc_generated_files/mcc.c: 92:     PMD7 = 0x00;
  3126  002D38  0E00               	movlw	0
  3127  002D3A  6FC7               	movwf	199,b	;volatile
  3128  002D3C                     
  3129                           ; BSR set to: 57
  3130  002D3C  0012               	return		;funcret
  3131  002D3E                     __end_of_PMD_Initialize:
  3132                           	callstack 0
  3133                           
  3134 ;; *************** function _PIN_MANAGER_Initialize *****************
  3135 ;; Defined at:
  3136 ;;		line 55 in file "mcc_generated_files/pin_manager.c"
  3137 ;; Parameters:    Size  Location     Type
  3138 ;;		None
  3139 ;; Auto vars:     Size  Location     Type
  3140 ;;		None
  3141 ;; Return value:  Size  Location     Type
  3142 ;;                  1    wreg      void 
  3143 ;; Registers used:
  3144 ;;		wreg, status,2
  3145 ;; Tracked objects:
  3146 ;;		On entry : 0/0
  3147 ;;		On exit  : 0/0
  3148 ;;		Unchanged: 0/0
  3149 ;; Data sizes:     COMRAM   BANK0   BANK1   BANK2   BANK3   BANK4   BANK5   BANK6   BANK7   BANK8   BANK9  BANK10  BANK1
      +1  BANK12  BANK13  BANK14  BANK15  BANK16  BANK17  BANK18  BANK19  BANK20  BANK21  BANK22  BANK23  BANK24  BANK25  BANK2
      +6  BANK27  BANK28  BANK29  BANK30  BANK31
  3150 ;;      Params:         0       0       0       0       0       0       0       0       0       0       0       0       
      +0       0       0       0       0       0       0       0       0       0       0       0       0       0       0       
      +0       0       0       0       0       0
  3151 ;;      Locals:         0       0       0       0       0       0       0       0       0       0       0       0       
      +0       0       0       0       0       0       0       0       0       0       0       0       0       0       0       
      +0       0       0       0       0       0
  3152 ;;      Temps:          0       0       0       0       0       0       0       0       0       0       0       0       
      +0       0       0       0       0       0       0       0       0       0       0       0       0       0       0       
      +0       0       0       0       0       0
  3153 ;;      Totals:         0       0       0       0       0       0       0       0       0       0       0       0       
      +0       0       0       0       0       0       0       0       0       0       0       0       0       0       0       
      +0       0       0       0       0       0
  3154 ;;Total ram usage:        0 bytes
  3155 ;; Hardware stack levels used:    1
  3156 ;; Hardware stack levels required when called:    3
  3157 ;; This function calls:
  3158 ;;		Nothing
  3159 ;; This function is called by:
  3160 ;;		_SYSTEM_Initialize
  3161 ;; This function uses a non-reentrant model
  3162 ;;
  3163                           
  3164                           	psect	text23
  3165  002956                     __ptext23:
  3166                           	callstack 0
  3167  002956                     _PIN_MANAGER_Initialize:
  3168                           	callstack 26
  3169  002956                     
  3170                           ;mcc_generated_files/pin_manager.c: 60:     LATE = 0x00;
  3171  002956  0E00               	movlw	0
  3172  002958  6EBE               	movwf	190,c	;volatile
  3173                           
  3174                           ;mcc_generated_files/pin_manager.c: 61:     LATD = 0x00;
  3175  00295A  0E00               	movlw	0
  3176  00295C  6EBD               	movwf	189,c	;volatile
  3177                           
  3178                           ;mcc_generated_files/pin_manager.c: 62:     LATA = 0x00;
  3179  00295E  0E00               	movlw	0
  3180  002960  6EBA               	movwf	186,c	;volatile
  3181                           
  3182                           ;mcc_generated_files/pin_manager.c: 63:     LATB = 0x00;
  3183  002962  0E00               	movlw	0
  3184  002964  6EBB               	movwf	187,c	;volatile
  3185                           
  3186                           ;mcc_generated_files/pin_manager.c: 64:     LATC = 0x00;
  3187  002966  0E00               	movlw	0
  3188  002968  6EBC               	movwf	188,c	;volatile
  3189                           
  3190                           ;mcc_generated_files/pin_manager.c: 69:     TRISE = 0x07;
  3191  00296A  0E07               	movlw	7
  3192  00296C  6EC6               	movwf	198,c	;volatile
  3193                           
  3194                           ;mcc_generated_files/pin_manager.c: 70:     TRISA = 0xD7;
  3195  00296E  0ED7               	movlw	215
  3196  002970  6EC2               	movwf	194,c	;volatile
  3197  002972                     
  3198                           ;mcc_generated_files/pin_manager.c: 71:     TRISB = 0xFF;
  3199  002972  68C3               	setf	195,c	;volatile
  3200                           
  3201                           ;mcc_generated_files/pin_manager.c: 72:     TRISC = 0xBF;
  3202  002974  0EBF               	movlw	191
  3203  002976  6EC4               	movwf	196,c	;volatile
  3204  002978                     
  3205                           ;mcc_generated_files/pin_manager.c: 73:     TRISD = 0xFF;
  3206  002978  68C5               	setf	197,c	;volatile
  3207  00297A                     
  3208                           ;mcc_generated_files/pin_manager.c: 78:     ANSELD = 0xFF;
  3209  00297A  013A               	movlb	58	; () banked
  3210  00297C  6970               	setf	112,b	;volatile
  3211                           
  3212                           ;mcc_generated_files/pin_manager.c: 79:     ANSELC = 0x7F;
  3213  00297E  0E7F               	movlw	127
  3214  002980  6F60               	movwf	96,b	;volatile
  3215  002982                     
  3216                           ; BSR set to: 58
  3217                           ;mcc_generated_files/pin_manager.c: 80:     ANSELB = 0xFF;
  3218  002982  6950               	setf	80,b	;volatile
  3219                           
  3220                           ;mcc_generated_files/pin_manager.c: 81:     ANSELE = 0x07;
  3221  002984  0E07               	movlw	7
  3222  002986  6F80               	movwf	128,b	;volatile
  3223  002988                     
  3224                           ; BSR set to: 58
  3225                           ;mcc_generated_files/pin_manager.c: 82:     ANSELA = 0xFF;
  3226  002988  6940               	setf	64,b	;volatile
  3227                           
  3228                           ;mcc_generated_files/pin_manager.c: 87:     WPUD = 0x00;
  3229  00298A  0E00               	movlw	0
  3230  00298C  6F71               	movwf	113,b	;volatile
  3231                           
  3232                           ;mcc_generated_files/pin_manager.c: 88:     WPUE = 0x00;
  3233  00298E  0E00               	movlw	0
  3234  002990  6F81               	movwf	129,b	;volatile
  3235                           
  3236                           ;mcc_generated_files/pin_manager.c: 89:     WPUB = 0x00;
  3237  002992  0E00               	movlw	0
  3238  002994  6F51               	movwf	81,b	;volatile
  3239                           
  3240                           ;mcc_generated_files/pin_manager.c: 90:     WPUA = 0x00;
  3241  002996  0E00               	movlw	0
  3242  002998  6F41               	movwf	65,b	;volatile
  3243                           
  3244                           ;mcc_generated_files/pin_manager.c: 91:     WPUC = 0x00;
  3245  00299A  0E00               	movlw	0
  3246  00299C  6F61               	movwf	97,b	;volatile
  3247                           
  3248                           ;mcc_generated_files/pin_manager.c: 96:     RB1I2C = 0x00;
  3249  00299E  0E00               	movlw	0
  3250  0029A0  6F5A               	movwf	90,b	;volatile
  3251                           
  3252                           ;mcc_generated_files/pin_manager.c: 97:     RB2I2C = 0x00;
  3253  0029A2  0E00               	movlw	0
  3254  0029A4  6F5B               	movwf	91,b	;volatile
  3255                           
  3256                           ;mcc_generated_files/pin_manager.c: 98:     RC3I2C = 0x00;
  3257  0029A6  0E00               	movlw	0
  3258  0029A8  6F6A               	movwf	106,b	;volatile
  3259                           
  3260                           ;mcc_generated_files/pin_manager.c: 99:     RC4I2C = 0x00;
  3261  0029AA  0E00               	movlw	0
  3262  0029AC  6F6B               	movwf	107,b	;volatile
  3263                           
  3264                           ;mcc_generated_files/pin_manager.c: 100:     RD0I2C = 0x00;
  3265  0029AE  0E00               	movlw	0
  3266  0029B0  6F7A               	movwf	122,b	;volatile
  3267                           
  3268                           ;mcc_generated_files/pin_manager.c: 101:     RD1I2C = 0x00;
  3269  0029B2  0E00               	movlw	0
  3270  0029B4  6F7B               	movwf	123,b	;volatile
  3271                           
  3272                           ;mcc_generated_files/pin_manager.c: 106:     ODCONE = 0x00;
  3273  0029B6  0E00               	movlw	0
  3274  0029B8  6F82               	movwf	130,b	;volatile
  3275                           
  3276                           ;mcc_generated_files/pin_manager.c: 107:     ODCONA = 0x00;
  3277  0029BA  0E00               	movlw	0
  3278  0029BC  6F42               	movwf	66,b	;volatile
  3279                           
  3280                           ;mcc_generated_files/pin_manager.c: 108:     ODCONB = 0x00;
  3281  0029BE  0E00               	movlw	0
  3282  0029C0  6F52               	movwf	82,b	;volatile
  3283                           
  3284                           ;mcc_generated_files/pin_manager.c: 109:     ODCONC = 0x00;
  3285  0029C2  0E00               	movlw	0
  3286  0029C4  6F62               	movwf	98,b	;volatile
  3287                           
  3288                           ;mcc_generated_files/pin_manager.c: 110:     ODCOND = 0x00;
  3289  0029C6  0E00               	movlw	0
  3290  0029C8  6F72               	movwf	114,b	;volatile
  3291  0029CA                     
  3292                           ; BSR set to: 58
  3293                           ;mcc_generated_files/pin_manager.c: 115:     SLRCONA = 0xFF;
  3294  0029CA  6943               	setf	67,b	;volatile
  3295  0029CC                     
  3296                           ; BSR set to: 58
  3297                           ;mcc_generated_files/pin_manager.c: 116:     SLRCONB = 0xFF;
  3298  0029CC  6953               	setf	83,b	;volatile
  3299  0029CE                     
  3300                           ; BSR set to: 58
  3301                           ;mcc_generated_files/pin_manager.c: 117:     SLRCONC = 0xFF;
  3302  0029CE  6963               	setf	99,b	;volatile
  3303  0029D0                     
  3304                           ; BSR set to: 58
  3305                           ;mcc_generated_files/pin_manager.c: 118:     SLRCOND = 0xFF;
  3306  0029D0  6973               	setf	115,b	;volatile
  3307                           
  3308                           ;mcc_generated_files/pin_manager.c: 119:     SLRCONE = 0x07;
  3309  0029D2  0E07               	movlw	7
  3310  0029D4  6F83               	movwf	131,b	;volatile
  3311  0029D6                     
  3312                           ; BSR set to: 58
  3313                           ;mcc_generated_files/pin_manager.c: 124:     INLVLA = 0xFF;
  3314  0029D6  6944               	setf	68,b	;volatile
  3315  0029D8                     
  3316                           ; BSR set to: 58
  3317                           ;mcc_generated_files/pin_manager.c: 125:     INLVLB = 0xFF;
  3318  0029D8  6954               	setf	84,b	;volatile
  3319  0029DA                     
  3320                           ; BSR set to: 58
  3321                           ;mcc_generated_files/pin_manager.c: 126:     INLVLC = 0xFF;
  3322  0029DA  6964               	setf	100,b	;volatile
  3323  0029DC                     
  3324                           ; BSR set to: 58
  3325                           ;mcc_generated_files/pin_manager.c: 127:     INLVLD = 0xFF;
  3326  0029DC  6974               	setf	116,b	;volatile
  3327                           
  3328                           ;mcc_generated_files/pin_manager.c: 128:     INLVLE = 0x0F;
  3329  0029DE  0E0F               	movlw	15
  3330  0029E0  6F84               	movwf	132,b	;volatile
  3331                           
  3332                           ;mcc_generated_files/pin_manager.c: 137:     RC6PPS = 0x13;
  3333  0029E2  0E13               	movlw	19
  3334  0029E4  6F16               	movwf	22,b	;volatile
  3335                           
  3336                           ;mcc_generated_files/pin_manager.c: 138:     U1RXPPS = 0x17;
  3337  0029E6  0E17               	movlw	23
  3338  0029E8  6FE5               	movwf	229,b	;volatile
  3339  0029EA                     
  3340                           ; BSR set to: 58
  3341  0029EA  0012               	return		;funcret
  3342  0029EC                     __end_of_PIN_MANAGER_Initialize:
  3343                           	callstack 0
  3344                           
  3345 ;; *************** function _OSCILLATOR_Initialize *****************
  3346 ;; Defined at:
  3347 ;;		line 61 in file "mcc_generated_files/mcc.c"
  3348 ;; Parameters:    Size  Location     Type
  3349 ;;		None
  3350 ;; Auto vars:     Size  Location     Type
  3351 ;;		None
  3352 ;; Return value:  Size  Location     Type
  3353 ;;                  1    wreg      void 
  3354 ;; Registers used:
  3355 ;;		wreg, status,2
  3356 ;; Tracked objects:
  3357 ;;		On entry : 0/0
  3358 ;;		On exit  : 0/0
  3359 ;;		Unchanged: 0/0
  3360 ;; Data sizes:     COMRAM   BANK0   BANK1   BANK2   BANK3   BANK4   BANK5   BANK6   BANK7   BANK8   BANK9  BANK10  BANK1
      +1  BANK12  BANK13  BANK14  BANK15  BANK16  BANK17  BANK18  BANK19  BANK20  BANK21  BANK22  BANK23  BANK24  BANK25  BANK2
      +6  BANK27  BANK28  BANK29  BANK30  BANK31
  3361 ;;      Params:         0       0       0       0       0       0       0       0       0       0       0       0       
      +0       0       0       0       0       0       0       0       0       0       0       0       0       0       0       
      +0       0       0       0       0       0
  3362 ;;      Locals:         0       0       0       0       0       0       0       0       0       0       0       0       
      +0       0       0       0       0       0       0       0       0       0       0       0       0       0       0       
      +0       0       0       0       0       0
  3363 ;;      Temps:          0       0       0       0       0       0       0       0       0       0       0       0       
      +0       0       0       0       0       0       0       0       0       0       0       0       0       0       0       
      +0       0       0       0       0       0
  3364 ;;      Totals:         0       0       0       0       0       0       0       0       0       0       0       0       
      +0       0       0       0       0       0       0       0       0       0       0       0       0       0       0       
      +0       0       0       0       0       0
  3365 ;;Total ram usage:        0 bytes
  3366 ;; Hardware stack levels used:    1
  3367 ;; Hardware stack levels required when called:    3
  3368 ;; This function calls:
  3369 ;;		Nothing
  3370 ;; This function is called by:
  3371 ;;		_SYSTEM_Initialize
  3372 ;; This function uses a non-reentrant model
  3373 ;;
  3374                           
  3375                           	psect	text24
  3376  002DBA                     __ptext24:
  3377                           	callstack 0
  3378  002DBA                     _OSCILLATOR_Initialize:
  3379                           	callstack 26
  3380  002DBA                     
  3381                           ;mcc_generated_files/mcc.c: 64:     OSCCON1 = 0x62;
  3382  002DBA  0E62               	movlw	98
  3383  002DBC  0139               	movlb	57	; () banked
  3384  002DBE  6FD9               	movwf	217,b	;volatile
  3385                           
  3386                           ;mcc_generated_files/mcc.c: 66:     OSCCON3 = 0x00;
  3387  002DC0  0E00               	movlw	0
  3388  002DC2  6FDB               	movwf	219,b	;volatile
  3389                           
  3390                           ;mcc_generated_files/mcc.c: 68:     OSCEN = 0x00;
  3391  002DC4  0E00               	movlw	0
  3392  002DC6  6FDD               	movwf	221,b	;volatile
  3393                           
  3394                           ;mcc_generated_files/mcc.c: 70:     OSCFRQ = 0x02;
  3395  002DC8  0E02               	movlw	2
  3396  002DCA  6FDF               	movwf	223,b	;volatile
  3397                           
  3398                           ;mcc_generated_files/mcc.c: 72:     OSCTUNE = 0x00;
  3399  002DCC  0E00               	movlw	0
  3400  002DCE  6FDE               	movwf	222,b	;volatile
  3401  002DD0                     
  3402                           ; BSR set to: 57
  3403  002DD0  0012               	return		;funcret
  3404  002DD2                     __end_of_OSCILLATOR_Initialize:
  3405                           	callstack 0
  3406                           
  3407 ;; *************** function _INTERRUPT_Initialize *****************
  3408 ;; Defined at:
  3409 ;;		line 52 in file "mcc_generated_files/interrupt_manager.c"
  3410 ;; Parameters:    Size  Location     Type
  3411 ;;		None
  3412 ;; Auto vars:     Size  Location     Type
  3413 ;;		None
  3414 ;; Return value:  Size  Location     Type
  3415 ;;                  1    wreg      void 
  3416 ;; Registers used:
  3417 ;;		None
  3418 ;; Tracked objects:
  3419 ;;		On entry : 0/0
  3420 ;;		On exit  : 0/0
  3421 ;;		Unchanged: 0/0
  3422 ;; Data sizes:     COMRAM   BANK0   BANK1   BANK2   BANK3   BANK4   BANK5   BANK6   BANK7   BANK8   BANK9  BANK10  BANK1
      +1  BANK12  BANK13  BANK14  BANK15  BANK16  BANK17  BANK18  BANK19  BANK20  BANK21  BANK22  BANK23  BANK24  BANK25  BANK2
      +6  BANK27  BANK28  BANK29  BANK30  BANK31
  3423 ;;      Params:         0       0       0       0       0       0       0       0       0       0       0       0       
      +0       0       0       0       0       0       0       0       0       0       0       0       0       0       0       
      +0       0       0       0       0       0
  3424 ;;      Locals:         0       0       0       0       0       0       0       0       0       0       0       0       
      +0       0       0       0       0       0       0       0       0       0       0       0       0       0       0       
      +0       0       0       0       0       0
  3425 ;;      Temps:          0       0       0       0       0       0       0       0       0       0       0       0       
      +0       0       0       0       0       0       0       0       0       0       0       0       0       0       0       
      +0       0       0       0       0       0
  3426 ;;      Totals:         0       0       0       0       0       0       0       0       0       0       0       0       
      +0       0       0       0       0       0       0       0       0       0       0       0       0       0       0       
      +0       0       0       0       0       0
  3427 ;;Total ram usage:        0 bytes
  3428 ;; Hardware stack levels used:    1
  3429 ;; Hardware stack levels required when called:    3
  3430 ;; This function calls:
  3431 ;;		Nothing
  3432 ;; This function is called by:
  3433 ;;		_SYSTEM_Initialize
  3434 ;;		_main
  3435 ;; This function uses a non-reentrant model
  3436 ;;
  3437                           
  3438                           	psect	text25
  3439  002E54                     __ptext25:
  3440                           	callstack 0
  3441  002E54                     _INTERRUPT_Initialize:
  3442                           	callstack 26
  3443  002E54                     
  3444                           ;mcc_generated_files/interrupt_manager.c: 55:     INTCON0bits.IPEN = 0;
  3445  002E54  9AD2               	bcf	210,5,c	;volatile
  3446  002E56  0012               	return		;funcret
  3447  002E58                     __end_of_INTERRUPT_Initialize:
  3448                           	callstack 0
  3449                           
  3450 ;; *************** function _ADCC_Initialize *****************
  3451 ;; Defined at:
  3452 ;;		line 62 in file "mcc_generated_files/adcc.c"
  3453 ;; Parameters:    Size  Location     Type
  3454 ;;		None
  3455 ;; Auto vars:     Size  Location     Type
  3456 ;;		None
  3457 ;; Return value:  Size  Location     Type
  3458 ;;                  1    wreg      void 
  3459 ;; Registers used:
  3460 ;;		wreg, status,2
  3461 ;; Tracked objects:
  3462 ;;		On entry : 0/0
  3463 ;;		On exit  : 0/0
  3464 ;;		Unchanged: 0/0
  3465 ;; Data sizes:     COMRAM   BANK0   BANK1   BANK2   BANK3   BANK4   BANK5   BANK6   BANK7   BANK8   BANK9  BANK10  BANK1
      +1  BANK12  BANK13  BANK14  BANK15  BANK16  BANK17  BANK18  BANK19  BANK20  BANK21  BANK22  BANK23  BANK24  BANK25  BANK2
      +6  BANK27  BANK28  BANK29  BANK30  BANK31
  3466 ;;      Params:         0       0       0       0       0       0       0       0       0       0       0       0       
      +0       0       0       0       0       0       0       0       0       0       0       0       0       0       0       
      +0       0       0       0       0       0
  3467 ;;      Locals:         0       0       0       0       0       0       0       0       0       0       0       0       
      +0       0       0       0       0       0       0       0       0       0       0       0       0       0       0       
      +0       0       0       0       0       0
  3468 ;;      Temps:          0       0       0       0       0       0       0       0       0       0       0       0       
      +0       0       0       0       0       0       0       0       0       0       0       0       0       0       0       
      +0       0       0       0       0       0
  3469 ;;      Totals:         0       0       0       0       0       0       0       0       0       0       0       0       
      +0       0       0       0       0       0       0       0       0       0       0       0       0       0       0       
      +0       0       0       0       0       0
  3470 ;;Total ram usage:        0 bytes
  3471 ;; Hardware stack levels used:    1
  3472 ;; Hardware stack levels required when called:    3
  3473 ;; This function calls:
  3474 ;;		Nothing
  3475 ;; This function is called by:
  3476 ;;		_SYSTEM_Initialize
  3477 ;;		_main
  3478 ;; This function uses a non-reentrant model
  3479 ;;
  3480                           
  3481                           	psect	text26
  3482  002B54                     __ptext26:
  3483                           	callstack 0
  3484  002B54                     _ADCC_Initialize:
  3485                           	callstack 26
  3486  002B54                     
  3487                           ;mcc_generated_files/adcc.c: 66:     ADLTHL = 0x00;
  3488  002B54  0E00               	movlw	0
  3489  002B56  013E               	movlb	62	; () banked
  3490  002B58  6FDE               	movwf	222,b	;volatile
  3491                           
  3492                           ;mcc_generated_files/adcc.c: 68:     ADLTHH = 0x00;
  3493  002B5A  0E00               	movlw	0
  3494  002B5C  6FDF               	movwf	223,b	;volatile
  3495                           
  3496                           ;mcc_generated_files/adcc.c: 70:     ADUTHL = 0x00;
  3497  002B5E  0E00               	movlw	0
  3498  002B60  6FE0               	movwf	224,b	;volatile
  3499                           
  3500                           ;mcc_generated_files/adcc.c: 72:     ADUTHH = 0x00;
  3501  002B62  0E00               	movlw	0
  3502  002B64  6FE1               	movwf	225,b	;volatile
  3503                           
  3504                           ;mcc_generated_files/adcc.c: 74:     ADSTPTL = 0x00;
  3505  002B66  0E00               	movlw	0
  3506  002B68  6FE4               	movwf	228,b	;volatile
  3507                           
  3508                           ;mcc_generated_files/adcc.c: 76:     ADSTPTH = 0x00;
  3509  002B6A  0E00               	movlw	0
  3510  002B6C  6FE5               	movwf	229,b	;volatile
  3511                           
  3512                           ;mcc_generated_files/adcc.c: 78:     ADACCU = 0x00;
  3513  002B6E  0E00               	movlw	0
  3514  002B70  6FEA               	movwf	234,b	;volatile
  3515                           
  3516                           ;mcc_generated_files/adcc.c: 80:     ADRPT = 0x00;
  3517  002B72  0E00               	movlw	0
  3518  002B74  6FEC               	movwf	236,b	;volatile
  3519                           
  3520                           ;mcc_generated_files/adcc.c: 82:     ADPCH = 0x00;
  3521  002B76  0E00               	movlw	0
  3522  002B78  6FF1               	movwf	241,b	;volatile
  3523                           
  3524                           ;mcc_generated_files/adcc.c: 84:     ADACQL = 0x00;
  3525  002B7A  0E00               	movlw	0
  3526  002B7C  6FF3               	movwf	243,b	;volatile
  3527                           
  3528                           ;mcc_generated_files/adcc.c: 86:     ADACQH = 0x00;
  3529  002B7E  0E00               	movlw	0
  3530  002B80  6FF4               	movwf	244,b	;volatile
  3531                           
  3532                           ;mcc_generated_files/adcc.c: 88:     ADCAP = 0x00;
  3533  002B82  0E00               	movlw	0
  3534  002B84  6FF5               	movwf	245,b	;volatile
  3535                           
  3536                           ;mcc_generated_files/adcc.c: 90:     ADPREL = 0x00;
  3537  002B86  0E00               	movlw	0
  3538  002B88  6FF6               	movwf	246,b	;volatile
  3539                           
  3540                           ;mcc_generated_files/adcc.c: 92:     ADPREH = 0x00;
  3541  002B8A  0E00               	movlw	0
  3542  002B8C  6FF7               	movwf	247,b	;volatile
  3543                           
  3544                           ;mcc_generated_files/adcc.c: 94:     ADCON1 = 0x00;
  3545  002B8E  0E00               	movlw	0
  3546  002B90  6FF9               	movwf	249,b	;volatile
  3547                           
  3548                           ;mcc_generated_files/adcc.c: 96:     ADCON2 = 0x00;
  3549  002B92  0E00               	movlw	0
  3550  002B94  6FFA               	movwf	250,b	;volatile
  3551                           
  3552                           ;mcc_generated_files/adcc.c: 98:     ADCON3 = 0x00;
  3553  002B96  0E00               	movlw	0
  3554  002B98  6FFB               	movwf	251,b	;volatile
  3555                           
  3556                           ;mcc_generated_files/adcc.c: 100:     ADSTAT = 0x00;
  3557  002B9A  0E00               	movlw	0
  3558  002B9C  6FFC               	movwf	252,b	;volatile
  3559                           
  3560                           ;mcc_generated_files/adcc.c: 102:     ADREF = 0x00;
  3561  002B9E  0E00               	movlw	0
  3562  002BA0  6FFD               	movwf	253,b	;volatile
  3563                           
  3564                           ;mcc_generated_files/adcc.c: 104:     ADACT = 0x00;
  3565  002BA2  0E00               	movlw	0
  3566  002BA4  6FFE               	movwf	254,b	;volatile
  3567                           
  3568                           ;mcc_generated_files/adcc.c: 106:     ADCLK = 0x00;
  3569  002BA6  0E00               	movlw	0
  3570  002BA8  6FFF               	movwf	255,b	;volatile
  3571                           
  3572                           ;mcc_generated_files/adcc.c: 108:     ADCON0 = 0x84;
  3573  002BAA  0E84               	movlw	132
  3574  002BAC  6FF8               	movwf	248,b	;volatile
  3575  002BAE                     
  3576                           ; BSR set to: 62
  3577  002BAE  0012               	return		;funcret
  3578  002BB0                     __end_of_ADCC_Initialize:
  3579                           	callstack 0
  3580                           
  3581 ;; *************** function _ADCC_StartConversion *****************
  3582 ;; Defined at:
  3583 ;;		line 113 in file "mcc_generated_files/adcc.c"
  3584 ;; Parameters:    Size  Location     Type
  3585 ;;  channel         1    wreg     enum E15804
  3586 ;; Auto vars:     Size  Location     Type
  3587 ;;  channel         1    1[COMRAM] enum E15804
  3588 ;; Return value:  Size  Location     Type
  3589 ;;                  1    wreg      void 
  3590 ;; Registers used:
  3591 ;;		wreg
  3592 ;; Tracked objects:
  3593 ;;		On entry : 0/0
  3594 ;;		On exit  : 0/0
  3595 ;;		Unchanged: 0/0
  3596 ;; Data sizes:     COMRAM   BANK0   BANK1   BANK2   BANK3   BANK4   BANK5   BANK6   BANK7   BANK8   BANK9  BANK10  BANK1
      +1  BANK12  BANK13  BANK14  BANK15  BANK16  BANK17  BANK18  BANK19  BANK20  BANK21  BANK22  BANK23  BANK24  BANK25  BANK2
      +6  BANK27  BANK28  BANK29  BANK30  BANK31
  3597 ;;      Params:         0       0       0       0       0       0       0       0       0       0       0       0       
      +0       0       0       0       0       0       0       0       0       0       0       0       0       0       0       
      +0       0       0       0       0       0
  3598 ;;      Locals:         1       0       0       0       0       0       0       0       0       0       0       0       
      +0       0       0       0       0       0       0       0       0       0       0       0       0       0       0       
      +0       0       0       0       0       0
  3599 ;;      Temps:          0       0       0       0       0       0       0       0       0       0       0       0       
      +0       0       0       0       0       0       0       0       0       0       0       0       0       0       0       
      +0       0       0       0       0       0
  3600 ;;      Totals:         1       0       0       0       0       0       0       0       0       0       0       0       
      +0       0       0       0       0       0       0       0       0       0       0       0       0       0       0       
      +0       0       0       0       0       0
  3601 ;;Total ram usage:        1 bytes
  3602 ;; Hardware stack levels used:    1
  3603 ;; Hardware stack levels required when called:    3
  3604 ;; This function calls:
  3605 ;;		Nothing
  3606 ;; This function is called by:
  3607 ;;		_main
  3608 ;; This function uses a non-reentrant model
  3609 ;;
  3610                           
  3611                           	psect	text27
  3612  002DFE                     __ptext27:
  3613                           	callstack 0
  3614  002DFE                     _ADCC_StartConversion:
  3615                           	callstack 27
  3616                           
  3617                           ; BSR set to: 62
  3618                           ;incstack = 0
  3619                           ;ADCC_StartConversion@channel stored from wreg
  3620  002DFE  6E02               	movwf	ADCC_StartConversion@channel^0,c
  3621  002E00                     
  3622                           ;mcc_generated_files/adcc.c: 113: void ADCC_StartConversion(adcc_channel_t channel);mcc_
      +                          generated_files/adcc.c: 114: {;mcc_generated_files/adcc.c: 116:     ADPCH = channel;
  3623  002E00  0060  F00B  FEF1   	movff	ADCC_StartConversion@channel,16113	;volatile
  3624  002E06                     
  3625                           ;mcc_generated_files/adcc.c: 119:     ADCON0bits.ADON = 1;
  3626  002E06  013E               	movlb	62	; () banked
  3627  002E08  8FF8               	bsf	248,7,b	;volatile
  3628  002E0A                     
  3629                           ; BSR set to: 62
  3630                           ;mcc_generated_files/adcc.c: 122:     ADCON0bits.ADGO = 1;
  3631  002E0A  81F8               	bsf	248,0,b	;volatile
  3632  002E0C                     
  3633                           ; BSR set to: 62
  3634  002E0C  0012               	return		;funcret
  3635  002E0E                     __end_of_ADCC_StartConversion:
  3636                           	callstack 0
  3637                           
  3638 ;; *************** function _ADCC_IsConversionDone *****************
  3639 ;; Defined at:
  3640 ;;		line 125 in file "mcc_generated_files/adcc.c"
  3641 ;; Parameters:    Size  Location     Type
  3642 ;;		None
  3643 ;; Auto vars:     Size  Location     Type
  3644 ;;		None
  3645 ;; Return value:  Size  Location     Type
  3646 ;;                  1    wreg      _Bool 
  3647 ;; Registers used:
  3648 ;;		wreg
  3649 ;; Tracked objects:
  3650 ;;		On entry : 0/0
  3651 ;;		On exit  : 0/0
  3652 ;;		Unchanged: 0/0
  3653 ;; Data sizes:     COMRAM   BANK0   BANK1   BANK2   BANK3   BANK4   BANK5   BANK6   BANK7   BANK8   BANK9  BANK10  BANK1
      +1  BANK12  BANK13  BANK14  BANK15  BANK16  BANK17  BANK18  BANK19  BANK20  BANK21  BANK22  BANK23  BANK24  BANK25  BANK2
      +6  BANK27  BANK28  BANK29  BANK30  BANK31
  3654 ;;      Params:         0       0       0       0       0       0       0       0       0       0       0       0       
      +0       0       0       0       0       0       0       0       0       0       0       0       0       0       0       
      +0       0       0       0       0       0
  3655 ;;      Locals:         0       0       0       0       0       0       0       0       0       0       0       0       
      +0       0       0       0       0       0       0       0       0       0       0       0       0       0       0       
      +0       0       0       0       0       0
  3656 ;;      Temps:          0       0       0       0       0       0       0       0       0       0       0       0       
      +0       0       0       0       0       0       0       0       0       0       0       0       0       0       0       
      +0       0       0       0       0       0
  3657 ;;      Totals:         0       0       0       0       0       0       0       0       0       0       0       0       
      +0       0       0       0       0       0       0       0       0       0       0       0       0       0       0       
      +0       0       0       0       0       0
  3658 ;;Total ram usage:        0 bytes
  3659 ;; Hardware stack levels used:    1
  3660 ;; Hardware stack levels required when called:    3
  3661 ;; This function calls:
  3662 ;;		Nothing
  3663 ;; This function is called by:
  3664 ;;		_main
  3665 ;; This function uses a non-reentrant model
  3666 ;;
  3667                           
  3668                           	psect	text28
  3669  002DD2                     __ptext28:
  3670                           	callstack 0
  3671  002DD2                     _ADCC_IsConversionDone:
  3672                           	callstack 27
  3673  002DD2                     
  3674                           ;mcc_generated_files/adcc.c: 128:     return ((unsigned char)(!ADCON0bits.ADGO));
  3675  002DD2  013E               	movlb	62	; () banked
  3676  002DD4  A1F8               	btfss	248,0,b	;volatile
  3677  002DD6  EFEF  F016         	goto	u1711
  3678  002DDA  EFF2  F016         	goto	u1710
  3679  002DDE                     u1711:
  3680  002DDE  0E01               	movlw	1
  3681  002DE0  EFF3  F016         	goto	u1720
  3682  002DE4                     u1710:
  3683  002DE4  0E00               	movlw	0
  3684  002DE6                     u1720:
  3685  002DE6                     
  3686                           ; BSR set to: 62
  3687  002DE6  0012               	return		;funcret
  3688  002DE8                     __end_of_ADCC_IsConversionDone:
  3689                           	callstack 0
  3690                           
  3691 ;; *************** function _ADCC_GetConversionResult *****************
  3692 ;; Defined at:
  3693 ;;		line 131 in file "mcc_generated_files/adcc.c"
  3694 ;; Parameters:    Size  Location     Type
  3695 ;;		None
  3696 ;; Auto vars:     Size  Location     Type
  3697 ;;		None
  3698 ;; Return value:  Size  Location     Type
  3699 ;;                  2    1[COMRAM] unsigned short 
  3700 ;; Registers used:
  3701 ;;		wreg, status,2, status,0
  3702 ;; Tracked objects:
  3703 ;;		On entry : 0/0
  3704 ;;		On exit  : 0/0
  3705 ;;		Unchanged: 0/0
  3706 ;; Data sizes:     COMRAM   BANK0   BANK1   BANK2   BANK3   BANK4   BANK5   BANK6   BANK7   BANK8   BANK9  BANK10  BANK1
      +1  BANK12  BANK13  BANK14  BANK15  BANK16  BANK17  BANK18  BANK19  BANK20  BANK21  BANK22  BANK23  BANK24  BANK25  BANK2
      +6  BANK27  BANK28  BANK29  BANK30  BANK31
  3707 ;;      Params:         2       0       0       0       0       0       0       0       0       0       0       0       
      +0       0       0       0       0       0       0       0       0       0       0       0       0       0       0       
      +0       0       0       0       0       0
  3708 ;;      Locals:         0       0       0       0       0       0       0       0       0       0       0       0       
      +0       0       0       0       0       0       0       0       0       0       0       0       0       0       0       
      +0       0       0       0       0       0
  3709 ;;      Temps:          2       0       0       0       0       0       0       0       0       0       0       0       
      +0       0       0       0       0       0       0       0       0       0       0       0       0       0       0       
      +0       0       0       0       0       0
  3710 ;;      Totals:         4       0       0       0       0       0       0       0       0       0       0       0       
      +0       0       0       0       0       0       0       0       0       0       0       0       0       0       0       
      +0       0       0       0       0       0
  3711 ;;Total ram usage:        4 bytes
  3712 ;; Hardware stack levels used:    1
  3713 ;; Hardware stack levels required when called:    3
  3714 ;; This function calls:
  3715 ;;		Nothing
  3716 ;; This function is called by:
  3717 ;;		_main
  3718 ;; This function uses a non-reentrant model
  3719 ;;
  3720                           
  3721                           	psect	text29
  3722  002DE8                     __ptext29:
  3723                           	callstack 0
  3724  002DE8                     _ADCC_GetConversionResult:
  3725                           	callstack 27
  3726  002DE8                     
  3727                           ;mcc_generated_files/adcc.c: 134:     return ((adc_result_t)((ADRESH << 8) + ADRESL));
  3728  002DE8  013E               	movlb	62	; () banked
  3729  002DEA  51F0               	movf	240,w,b	;volatile
  3730  002DEC  6E05               	movwf	(??_ADCC_GetConversionResult+1)^0,c
  3731  002DEE  6A04               	clrf	??_ADCC_GetConversionResult^0,c
  3732  002DF0  51EF               	movf	239,w,b	;volatile
  3733  002DF2  2404               	addwf	??_ADCC_GetConversionResult^0,w,c
  3734  002DF4  6E02               	movwf	?_ADCC_GetConversionResult^0,c
  3735  002DF6  0E00               	movlw	0
  3736  002DF8  2005               	addwfc	(??_ADCC_GetConversionResult+1)^0,w,c
  3737  002DFA  6E03               	movwf	(?_ADCC_GetConversionResult+1)^0,c
  3738  002DFC                     
  3739                           ; BSR set to: 62
  3740  002DFC  0012               	return		;funcret
  3741  002DFE                     __end_of_ADCC_GetConversionResult:
  3742                           	callstack 0
  3743                           
  3744 ;; *************** function _INTERRUPT_InterruptManager *****************
  3745 ;; Defined at:
  3746 ;;		line 58 in file "mcc_generated_files/interrupt_manager.c"
  3747 ;; Parameters:    Size  Location     Type
  3748 ;;		None
  3749 ;; Auto vars:     Size  Location     Type
  3750 ;;		None
  3751 ;; Return value:  Size  Location     Type
  3752 ;;                  1    wreg      void 
  3753 ;; Registers used:
  3754 ;;		wreg, status,2, status,0, pclath, tosl, cstack
  3755 ;; Tracked objects:
  3756 ;;		On entry : 0/0
  3757 ;;		On exit  : 0/0
  3758 ;;		Unchanged: 0/0
  3759 ;; Data sizes:     COMRAM   BANK0   BANK1   BANK2   BANK3   BANK4   BANK5   BANK6   BANK7   BANK8   BANK9  BANK10  BANK1
      +1  BANK12  BANK13  BANK14  BANK15  BANK16  BANK17  BANK18  BANK19  BANK20  BANK21  BANK22  BANK23  BANK24  BANK25  BANK2
      +6  BANK27  BANK28  BANK29  BANK30  BANK31
  3760 ;;      Params:         0       0       0       0       0       0       0       0       0       0       0       0       
      +0       0       0       0       0       0       0       0       0       0       0       0       0       0       0       
      +0       0       0       0       0       0
  3761 ;;      Locals:         0       0       0       0       0       0       0       0       0       0       0       0       
      +0       0       0       0       0       0       0       0       0       0       0       0       0       0       0       
      +0       0       0       0       0       0
  3762 ;;      Temps:          0       0       0       0       0       0       0       0       0       0       0       0       
      +0       0       0       0       0       0       0       0       0       0       0       0       0       0       0       
      +0       0       0       0       0       0
  3763 ;;      Totals:         0       0       0       0       0       0       0       0       0       0       0       0       
      +0       0       0       0       0       0       0       0       0       0       0       0       0       0       0       
      +0       0       0       0       0       0
  3764 ;;Total ram usage:        0 bytes
  3765 ;; Hardware stack levels used:    1
  3766 ;; Hardware stack levels required when called:    2
  3767 ;; This function calls:
  3768 ;;		_TMR0_ISR
  3769 ;; This function is called by:
  3770 ;;		Interrupt level 2
  3771 ;; This function uses a non-reentrant model
  3772 ;;
  3773                           
  3774                           	psect	text30
  3775  002D3E                     __ptext30:
  3776                           	callstack 0
  3777  002D3E                     _INTERRUPT_InterruptManager:
  3778                           	callstack 19
  3779  002D3E                     
  3780                           ;mcc_generated_files/interrupt_manager.c: 61:     if(PIE3bits.TMR0IE == 1 && PIR3bits.TM
      +                          R0IF == 1)
  3781  002D3E  0139               	movlb	57	; () banked
  3782  002D40  AF93               	btfss	147,7,b	;volatile
  3783  002D42  EFA5  F016         	goto	i2u124_41
  3784  002D46  EFA7  F016         	goto	i2u124_40
  3785  002D4A                     i2u124_41:
  3786  002D4A  EFB0  F016         	goto	i2l528
  3787  002D4E                     i2u124_40:
  3788  002D4E                     
  3789                           ; BSR set to: 57
  3790  002D4E  AFA3               	btfss	163,7,b	;volatile
  3791  002D50  EFAC  F016         	goto	i2u125_41
  3792  002D54  EFAE  F016         	goto	i2u125_40
  3793  002D58                     i2u125_41:
  3794  002D58  EFB0  F016         	goto	i2l528
  3795  002D5C                     i2u125_40:
  3796  002D5C                     
  3797                           ; BSR set to: 57
  3798                           ;mcc_generated_files/interrupt_manager.c: 62:     {;mcc_generated_files/interrupt_manage
      +                          r.c: 63:         TMR0_ISR();
  3799  002D5C  ECD8  F015         	call	_TMR0_ISR	;wreg free
  3800  002D60                     i2l528:
  3801  002D60  0011               	retfie		f
  3802  002D62                     __end_of_INTERRUPT_InterruptManager:
  3803                           	callstack 0
  3804                           
  3805 ;; *************** function _TMR0_ISR *****************
  3806 ;; Defined at:
  3807 ;;		line 122 in file "mcc_generated_files/tmr0.c"
  3808 ;; Parameters:    Size  Location     Type
  3809 ;;		None
  3810 ;; Auto vars:     Size  Location     Type
  3811 ;;		None
  3812 ;; Return value:  Size  Location     Type
  3813 ;;                  1    wreg      void 
  3814 ;; Registers used:
  3815 ;;		wreg, status,2, status,0, pclath, tosl, cstack
  3816 ;; Tracked objects:
  3817 ;;		On entry : 0/0
  3818 ;;		On exit  : 0/0
  3819 ;;		Unchanged: 0/0
  3820 ;; Data sizes:     COMRAM   BANK0   BANK1   BANK2   BANK3   BANK4   BANK5   BANK6   BANK7   BANK8   BANK9  BANK10  BANK1
      +1  BANK12  BANK13  BANK14  BANK15  BANK16  BANK17  BANK18  BANK19  BANK20  BANK21  BANK22  BANK23  BANK24  BANK25  BANK2
      +6  BANK27  BANK28  BANK29  BANK30  BANK31
  3821 ;;      Params:         0       0       0       0       0       0       0       0       0       0       0       0       
      +0       0       0       0       0       0       0       0       0       0       0       0       0       0       0       
      +0       0       0       0       0       0
  3822 ;;      Locals:         0       0       0       0       0       0       0       0       0       0       0       0       
      +0       0       0       0       0       0       0       0       0       0       0       0       0       0       0       
      +0       0       0       0       0       0
  3823 ;;      Temps:          1       0       0       0       0       0       0       0       0       0       0       0       
      +0       0       0       0       0       0       0       0       0       0       0       0       0       0       0       
      +0       0       0       0       0       0
  3824 ;;      Totals:         1       0       0       0       0       0       0       0       0       0       0       0       
      +0       0       0       0       0       0       0       0       0       0       0       0       0       0       0       
      +0       0       0       0       0       0
  3825 ;;Total ram usage:        1 bytes
  3826 ;; Hardware stack levels used:    1
  3827 ;; Hardware stack levels required when called:    1
  3828 ;; This function calls:
  3829 ;;		Absolute function
  3830 ;;		_TMR0_DefaultInterruptHandler
  3831 ;; This function is called by:
  3832 ;;		_INTERRUPT_InterruptManager
  3833 ;; This function uses a non-reentrant model
  3834 ;;
  3835                           
  3836                           	psect	text31
  3837  002BB0                     __ptext31:
  3838                           	callstack 0
  3839  002BB0                     _TMR0_ISR:
  3840                           	callstack 19
  3841  002BB0                     
  3842                           ;mcc_generated_files/tmr0.c: 125:     PIR3bits.TMR0IF = 0;
  3843  002BB0  0139               	movlb	57	; () banked
  3844  002BB2  9FA3               	bcf	163,7,b	;volatile
  3845  002BB4                     
  3846                           ; BSR set to: 57
  3847                           ;mcc_generated_files/tmr0.c: 126:     if(TMR0_InterruptHandler)
  3848  002BB4  0100               	movlb	0	; () banked
  3849  002BB6  5188               	movf	_TMR0_InterruptHandler& (0+255),w,b
  3850  002BB8  1189               	iorwf	(_TMR0_InterruptHandler+1)& (0+255),w,b
  3851  002BBA  118A               	iorwf	(_TMR0_InterruptHandler+2)& (0+255),w,b
  3852  002BBC  B4D8               	btfsc	status,2,c
  3853  002BBE  EFE3  F015         	goto	i2u119_41
  3854  002BC2  EFE5  F015         	goto	i2u119_40
  3855  002BC6                     i2u119_41:
  3856  002BC6  EFF2  F015         	goto	i2l2230
  3857  002BCA                     i2u119_40:
  3858  002BCA                     
  3859                           ; BSR set to: 0
  3860                           ;mcc_generated_files/tmr0.c: 127:     {;mcc_generated_files/tmr0.c: 128:         TMR0_In
      +                          terruptHandler();
  3861  002BCA  D802               	call	i2u120_48
  3862  002BCC  EFF2  F015         	goto	i2u120_49
  3863  002BD0                     i2u120_48:
  3864  002BD0  0005               	push	
  3865  002BD2  6EFA               	movwf	pclath,c
  3866  002BD4  5188               	movf	_TMR0_InterruptHandler& (0+255),w,b
  3867  002BD6  6EFD               	movwf	tosl,c
  3868  002BD8  5189               	movf	(_TMR0_InterruptHandler+1)& (0+255),w,b
  3869  002BDA  6EFE               	movwf	tosh,c
  3870  002BDC  518A               	movf	(_TMR0_InterruptHandler+2)& (0+255),w,b
  3871  002BDE  6EFF               	movwf	tosu,c
  3872  002BE0  50FA               	movf	pclath,w,c
  3873  002BE2  0012               	return		;indir
  3874  002BE4                     i2u120_49:
  3875  002BE4                     i2l2230:
  3876                           
  3877                           ;mcc_generated_files/tmr0.c: 130:     LATAbits.LATA3 = ~LATAbits.LATA3;
  3878  002BE4  B6BA               	btfsc	186,3,c	;volatile
  3879  002BE6  EFF7  F015         	goto	i2u121_41
  3880  002BEA  EFFA  F015         	goto	i2u121_40
  3881  002BEE                     i2u121_41:
  3882  002BEE  0E01               	movlw	1
  3883  002BF0  EFFB  F015         	goto	i2u121_46
  3884  002BF4                     i2u121_40:
  3885  002BF4  0E00               	movlw	0
  3886  002BF6                     i2u121_46:
  3887  002BF6  0AFF               	xorlw	255
  3888  002BF8  6E01               	movwf	??_TMR0_ISR^0,c
  3889  002BFA  4601               	rlncf	??_TMR0_ISR^0,f,c
  3890  002BFC  4601               	rlncf	??_TMR0_ISR^0,f,c
  3891  002BFE  4601               	rlncf	??_TMR0_ISR^0,f,c
  3892  002C00  50BA               	movf	186,w,c	;volatile
  3893  002C02  1801               	xorwf	??_TMR0_ISR^0,w,c
  3894  002C04  0BF7               	andlw	-9
  3895  002C06  1801               	xorwf	??_TMR0_ISR^0,w,c
  3896  002C08  6EBA               	movwf	186,c	;volatile
  3897  002C0A  0012               	return		;funcret
  3898  002C0C                     __end_of_TMR0_ISR:
  3899                           	callstack 0
  3900                           
  3901 ;; *************** function _TMR0_DefaultInterruptHandler *****************
  3902 ;; Defined at:
  3903 ;;		line 140 in file "mcc_generated_files/tmr0.c"
  3904 ;; Parameters:    Size  Location     Type
  3905 ;;		None
  3906 ;; Auto vars:     Size  Location     Type
  3907 ;;		None
  3908 ;; Return value:  Size  Location     Type
  3909 ;;                  1    wreg      void 
  3910 ;; Registers used:
  3911 ;;		None
  3912 ;; Tracked objects:
  3913 ;;		On entry : 0/0
  3914 ;;		On exit  : 0/0
  3915 ;;		Unchanged: 0/0
  3916 ;; Data sizes:     COMRAM   BANK0   BANK1   BANK2   BANK3   BANK4   BANK5   BANK6   BANK7   BANK8   BANK9  BANK10  BANK1
      +1  BANK12  BANK13  BANK14  BANK15  BANK16  BANK17  BANK18  BANK19  BANK20  BANK21  BANK22  BANK23  BANK24  BANK25  BANK2
      +6  BANK27  BANK28  BANK29  BANK30  BANK31
  3917 ;;      Params:         0       0       0       0       0       0       0       0       0       0       0       0       
      +0       0       0       0       0       0       0       0       0       0       0       0       0       0       0       
      +0       0       0       0       0       0
  3918 ;;      Locals:         0       0       0       0       0       0       0       0       0       0       0       0       
      +0       0       0       0       0       0       0       0       0       0       0       0       0       0       0       
      +0       0       0       0       0       0
  3919 ;;      Temps:          0       0       0       0       0       0       0       0       0       0       0       0       
      +0       0       0       0       0       0       0       0       0       0       0       0       0       0       0       
      +0       0       0       0       0       0
  3920 ;;      Totals:         0       0       0       0       0       0       0       0       0       0       0       0       
      +0       0       0       0       0       0       0       0       0       0       0       0       0       0       0       
      +0       0       0       0       0       0
  3921 ;;Total ram usage:        0 bytes
  3922 ;; Hardware stack levels used:    1
  3923 ;; This function calls:
  3924 ;;		Nothing
  3925 ;; This function is called by:
  3926 ;;		_TMR0_Initialize
  3927 ;;		_TMR0_ISR
  3928 ;; This function uses a non-reentrant model
  3929 ;;
  3930                           
  3931                           	psect	text32
  3932  002E58                     __ptext32:
  3933                           	callstack 0
  3934  002E58                     _TMR0_DefaultInterruptHandler:
  3935                           	callstack 19
  3936  002E58  0012               	return		;funcret
  3937  002E5A                     __end_of_TMR0_DefaultInterruptHandler:
  3938                           	callstack 0
  3939                           
  3940                           ;
  3941                           ; Interrupt Vector Table @ 0x8
  3942                           ;
  3943                           
  3944                           	psect	ivt0x8
  3945  000008                     __pivt0x8:
  3946                           	callstack 0
  3947  000008                     ivt0x8_base:
  3948                           	callstack 0
  3949                           
  3950                           ; high-priority vector
  3951  000008  EF9F  F016         	goto	_INTERRUPT_InterruptManager
  3952  000018                     	org	16
  3953                           
  3954                           ; low-priority vector
  3955  000018  00FF               	reset	
  3956                           
  3957                           	psect	text33
  3958  000000                     __ptext33:
  3959                           	callstack 0
  3960  000000                     
  3961                           	psect	rparam
  3962  0000                     
  3963                           	psect	idloc
  3964                           
  3965                           ;Config register IDLOC0 @ 0x200000
  3966                           ;	unspecified, using default values
  3967  200000                     	org	2097152
  3968  200000  0FFF               	dw	4095
  3969                           
  3970                           ;Config register IDLOC1 @ 0x200002
  3971                           ;	unspecified, using default values
  3972  200002                     	org	2097154
  3973  200002  0FFF               	dw	4095
  3974                           
  3975                           ;Config register IDLOC2 @ 0x200004
  3976                           ;	unspecified, using default values
  3977  200004                     	org	2097156
  3978  200004  0FFF               	dw	4095
  3979                           
  3980                           ;Config register IDLOC3 @ 0x200006
  3981                           ;	unspecified, using default values
  3982  200006                     	org	2097158
  3983  200006  0FFF               	dw	4095
  3984                           
  3985                           ;Config register IDLOC4 @ 0x200008
  3986                           ;	unspecified, using default values
  3987  200008                     	org	2097160
  3988  200008  0FFF               	dw	4095
  3989                           
  3990                           ;Config register IDLOC5 @ 0x20000A
  3991                           ;	unspecified, using default values
  3992  20000A                     	org	2097162
  3993  20000A  0FFF               	dw	4095
  3994                           
  3995                           ;Config register IDLOC6 @ 0x20000C
  3996                           ;	unspecified, using default values
  3997  20000C                     	org	2097164
  3998  20000C  0FFF               	dw	4095
  3999                           
  4000                           ;Config register IDLOC7 @ 0x20000E
  4001                           ;	unspecified, using default values
  4002  20000E                     	org	2097166
  4003  20000E  0FFF               	dw	4095
  4004                           
  4005                           	psect	config
  4006                           
  4007                           ;Config register CONFIG1L @ 0x300000
  4008                           ;	External Oscillator Selection
  4009                           ;	FEXTOSC = OFF, Oscillator not enabled
  4010                           ;	Reset Oscillator Selection
  4011                           ;	RSTOSC = HFINTOSC_1MHZ, HFINTOSC with HFFRQ = 4 MHz and CDIV = 4:1
  4012  300000                     	org	3145728
  4013  300000  EC                 	db	236
  4014                           
  4015                           ;Config register CONFIG1H @ 0x300001
  4016                           ;	Clock out Enable bit
  4017                           ;	CLKOUTEN = OFF, CLKOUT function is disabled
  4018                           ;	PRLOCKED One-Way Set Enable bit
  4019                           ;	PR1WAY = ON, PRLOCK bit can be cleared and set only once
  4020                           ;	Clock Switch Enable bit
  4021                           ;	CSWEN = ON, Writing to NOSC and NDIV is allowed
  4022                           ;	Fail-Safe Clock Monitor Enable bit
  4023                           ;	FCMEN = ON, Fail-Safe Clock Monitor enabled
  4024  300001                     	org	3145729
  4025  300001  FF                 	db	255
  4026                           
  4027                           ;Config register CONFIG2L @ 0x300002
  4028                           ;	MCLR Enable bit
  4029                           ;	MCLRE = EXTMCLR, If LVP = 0, MCLR pin is MCLR; If LVP = 1, RE3 pin function is MCLR
  4030                           ;	Power-up timer selection bits
  4031                           ;	PWRTS = PWRT_OFF, PWRT is disabled
  4032                           ;	Multi-vector enable bit
  4033                           ;	MVECEN = OFF, Interrupt contoller does not use vector table to prioritze interrupts
  4034                           ;	IVTLOCK bit One-way set enable bit
  4035                           ;	IVT1WAY = ON, IVTLOCK bit can be cleared and set only once
  4036                           ;	Low Power BOR Enable bit
  4037                           ;	LPBOREN = OFF, ULPBOR disabled
  4038                           ;	Brown-out Reset Enable bits
  4039                           ;	BOREN = SBORDIS, Brown-out Reset enabled , SBOREN bit is ignored
  4040  300002                     	org	3145730
  4041  300002  F7                 	db	247
  4042                           
  4043                           ;Config register CONFIG2H @ 0x300003
  4044                           ;	Brown-out Reset Voltage Selection bits
  4045                           ;	BORV = VBOR_2P45, Brown-out Reset Voltage (VBOR) set to 2.45V
  4046                           ;	ZCD Disable bit
  4047                           ;	ZCD = OFF, ZCD disabled. ZCD can be enabled by setting the ZCDSEN bit of ZCDCON
  4048                           ;	PPSLOCK bit One-Way Set Enable bit
  4049                           ;	PPS1WAY = ON, PPSLOCK bit can be cleared and set only once; PPS registers remain locke
      +                          d after one clear/set cycle
  4050                           ;	Stack Full/Underflow Reset Enable bit
  4051                           ;	STVREN = ON, Stack full/underflow will cause Reset
  4052                           ;	Debugger Enable bit
  4053                           ;	DEBUG = OFF, Background debugger disabled
  4054                           ;	Extended Instruction Set Enable bit
  4055                           ;	XINST = OFF, Extended Instruction Set and Indexed Addressing Mode disabled
  4056  300003                     	org	3145731
  4057  300003  FF                 	db	255
  4058                           
  4059                           ;Config register CONFIG3L @ 0x300004
  4060                           ;	WDT Period selection bits
  4061                           ;	WDTCPS = WDTCPS_31, Divider ratio 1:65536; software control of WDTPS
  4062                           ;	WDT operating mode
  4063                           ;	WDTE = OFF, WDT Disabled; SWDTEN is ignored
  4064  300004                     	org	3145732
  4065  300004  9F                 	db	159
  4066                           
  4067                           ;Config register CONFIG3H @ 0x300005
  4068                           ;	WDT Window Select bits
  4069                           ;	WDTCWS = WDTCWS_7, window always open (100%); software control; keyed access not requi
      +                          red
  4070                           ;	WDT input clock selector
  4071                           ;	WDTCCS = SC, Software Control
  4072  300005                     	org	3145733
  4073  300005  FF                 	db	255
  4074                           
  4075                           ;Config register CONFIG4L @ 0x300006
  4076                           ;	Boot Block Size selection bits
  4077                           ;	BBSIZE = BBSIZE_512, Boot Block size is 512 words
  4078                           ;	Boot Block enable bit
  4079                           ;	BBEN = OFF, Boot block disabled
  4080                           ;	Storage Area Flash enable bit
  4081                           ;	SAFEN = OFF, SAF disabled
  4082                           ;	Application Block write protection bit
  4083                           ;	WRTAPP = OFF, Application Block not write protected
  4084  300006                     	org	3145734
  4085  300006  FF                 	db	255
  4086                           
  4087                           ;Config register CONFIG4H @ 0x300007
  4088                           ;	Configuration Register Write Protection bit
  4089                           ;	WRTB = OFF, Configuration registers (300000-30000Bh) not write-protected
  4090                           ;	Boot Block Write Protection bit
  4091                           ;	WRTC = OFF, Boot Block (000000-0007FFh) not write-protected
  4092                           ;	Data EEPROM Write Protection bit
  4093                           ;	WRTD = OFF, Data EEPROM not write-protected
  4094                           ;	SAF Write protection bit
  4095                           ;	WRTSAF = OFF, SAF not Write Protected
  4096                           ;	Low Voltage Programming Enable bit
  4097                           ;	LVP = ON, Low voltage programming enabled. MCLR/VPP pin function is MCLR. MCLRE config
      +                          uration bit is ignored
  4098  300007                     	org	3145735
  4099  300007  FF                 	db	255
  4100                           
  4101                           ;Config register CONFIG5L @ 0x300008
  4102                           ;	PFM and Data EEPROM Code Protection bit
  4103                           ;	CP = OFF, PFM and Data EEPROM code protection disabled
  4104  300008                     	org	3145736
  4105  300008  FF                 	db	255
  4106                           
  4107                           ;Config register CONFIG5H @ 0x300009
  4108                           ;	unspecified, using default values
  4109  300009                     	org	3145737
  4110  300009  FF                 	db	255
  4111                           tosu	equ	0x3FFF
  4112                           tosh	equ	0x3FFE
  4113                           tosl	equ	0x3FFD
  4114                           stkptr	equ	0x3FFC
  4115                           pclatu	equ	0x3FFB
  4116                           pclath	equ	0x3FFA
  4117                           pcl	equ	0x3FF9
  4118                           tblptru	equ	0x3FF8
  4119                           tblptrh	equ	0x3FF7
  4120                           tblptrl	equ	0x3FF6
  4121                           tablat	equ	0x3FF5
  4122                           prodh	equ	0x3FF4
  4123                           prodl	equ	0x3FF3
  4124                           indf0	equ	0x3FEF
  4125                           postinc0	equ	0x3FEE
  4126                           postdec0	equ	0x3FED
  4127                           preinc0	equ	0x3FEC
  4128                           plusw0	equ	0x3FEB
  4129                           fsr0h	equ	0x3FEA
  4130                           fsr0l	equ	0x3FE9
  4131                           wreg	equ	0x3FE8
  4132                           indf1	equ	0x3FE7
  4133                           postinc1	equ	0x3FE6
  4134                           postdec1	equ	0x3FE5
  4135                           preinc1	equ	0x3FE4
  4136                           plusw1	equ	0x3FE3
  4137                           fsr1h	equ	0x3FE2
  4138                           fsr1l	equ	0x3FE1
  4139                           bsr	equ	0x3FE0
  4140                           indf2	equ	0x3FDF
  4141                           postinc2	equ	0x3FDE
  4142                           postdec2	equ	0x3FDD
  4143                           preinc2	equ	0x3FDC
  4144                           plusw2	equ	0x3FDB
  4145                           fsr2h	equ	0x3FDA
  4146                           fsr2l	equ	0x3FD9
  4147                           status	equ	0x3FD8

Data Sizes:
    Strings     19
    Constant    0
    Data        0
    BSS         41
    Persistent  12
    Stack       0

Auto Spaces:
    Space          Size  Autos    Used
    COMRAM           95     93      94
    BANK0           160      8      60
    BANK1           256      0       0
    BANK2           256      0       0
    BANK3           256      0       0
    BANK4           256      0       0
    BANK5           256      0       0
    BANK6           256      0       0
    BANK7           256      0       0
    BANK8           256      0       0
    BANK9           256      0       0
    BANK10          256      0       0
    BANK11          256      0       0
    BANK12          256      0       0
    BANK13          256      0       0
    BANK14          256      0       0
    BANK15          256      0       0
    BANK16          256      0       0
    BANK17          256      0       0
    BANK18          256      0       0
    BANK19          256      0       0
    BANK20          256      0       0
    BANK21          256      0       0
    BANK22          256      0       0
    BANK23          256      0       0
    BANK24          256      0       0
    BANK25          256      0       0
    BANK26          256      0       0
    BANK27          256      0       0
    BANK28          256      0       0
    BANK29          256      0       0
    BANK30          256      0       0
    BANK31          256      0       0

Pointer List with Targets:

    strlen@s	PTR const unsigned char  size(2) Largest target is 32
		 -> dbuf(BANK0[32]), 

    strlen@a	PTR const unsigned char  size(2) Largest target is 32
		 -> dbuf(BANK0[32]), 

    fputs@s	PTR const unsigned char  size(2) Largest target is 32
		 -> dbuf(BANK0[32]), 

    fputs@fp	PTR struct _IO_FILE size(2) Largest target is 0
		 -> NULL(NULL[0]), 

    S1562_IO_FILE$buffer	PTR unsigned char  size(2) Largest target is 0

    fputc@fp.buffer	PTR unsigned char  size(2) Largest target is 0

    fputc@fp	PTR struct _IO_FILE size(2) Largest target is 0
		 -> NULL(NULL[0]), 

    vfprintf@ap	PTR PTR void  size(2) Largest target is 2
		 -> printf@ap(BANK0[2]), 

    vfprintf@fp	PTR struct _IO_FILE size(2) Largest target is 0
		 -> NULL(NULL[0]), 

    vfprintf@fmt	PTR const unsigned char  size(2) Largest target is 19
		 -> STR_1(CODE[19]), 

    vfprintf@cfmt	PTR unsigned char  size(2) Largest target is 19
		 -> STR_1(CODE[19]), 

    vfpfcnvrt@fp	PTR struct _IO_FILE size(2) Largest target is 0
		 -> NULL(NULL[0]), 

    vfpfcnvrt@ap	PTR PTR void  size(2) Largest target is 2
		 -> printf@ap(BANK0[2]), 

    vfpfcnvrt@fmt	PTR PTR unsigned char  size(2) Largest target is 2
		 -> vfprintf@cfmt(COMRAM[2]), 

    dtoa@fp	PTR struct _IO_FILE size(2) Largest target is 0
		 -> NULL(NULL[0]), 

    pad@fp	PTR struct _IO_FILE size(2) Largest target is 0
		 -> NULL(NULL[0]), 

    pad@buf	PTR unsigned char  size(2) Largest target is 32
		 -> dbuf(BANK0[32]), 

    printf@fmt	PTR const unsigned char  size(2) Largest target is 19
		 -> STR_1(CODE[19]), 

    printf@ap	PTR void [1] size(2) Largest target is 2
		 -> ?_printf(BANK0[2]), 

    TMR0_SetInterruptHandler@InterruptHandler	PTR FTN()void  size(3) Largest target is 1
		 -> TMR0_DefaultInterruptHandler(), 

    TMR0_InterruptHandler	PTR FTN()void  size(3) Largest target is 1
		 -> Absolute function(), TMR0_DefaultInterruptHandler(), 

    UART1_SetErrorHandler@interruptHandler	PTR FTN()void  size(3) Largest target is 1
		 -> UART1_DefaultErrorHandler(), 

    UART1_SetOverrunErrorHandler@interruptHandler	PTR FTN()void  size(3) Largest target is 1
		 -> UART1_DefaultOverrunErrorHandler(), 

    UART1_SetFramingErrorHandler@interruptHandler	PTR FTN()void  size(3) Largest target is 1
		 -> UART1_DefaultFramingErrorHandler(), 

    UART1_ErrorHandler	PTR FTN()void  size(3) Largest target is 1
		 -> Absolute function(), UART1_DefaultErrorHandler(), 

    UART1_OverrunErrorHandler	PTR FTN()void  size(3) Largest target is 1
		 -> Absolute function(), UART1_DefaultOverrunErrorHandler(), 

    UART1_FramingErrorHandler	PTR FTN()void  size(3) Largest target is 1
		 -> Absolute function(), UART1_DefaultFramingErrorHandler(), 


Critical Paths under _main in COMRAM

    _printf->_vfprintf
    _vfprintf->_vfpfcnvrt
    _vfpfcnvrt->_dtoa
    _dtoa->_pad
    _pad->_fputs
    _fputs->_fputc
    _fputc->_putch
    _putch->_UART1_Write
    _abs->___aomod
    _UART1_Initialize->_UART1_SetErrorHandler
    _UART1_Initialize->_UART1_SetFramingErrorHandler
    _UART1_Initialize->_UART1_SetOverrunErrorHandler
    _TMR0_Initialize->_TMR0_SetInterruptHandler

Critical Paths under _INTERRUPT_InterruptManager in COMRAM

    _INTERRUPT_InterruptManager->_TMR0_ISR

Critical Paths under _main in BANK0

    _main->_printf

Critical Paths under _INTERRUPT_InterruptManager in BANK0

    None.

Critical Paths under _main in BANK1

    None.

Critical Paths under _INTERRUPT_InterruptManager in BANK1

    None.

Critical Paths under _main in BANK2

    None.

Critical Paths under _INTERRUPT_InterruptManager in BANK2

    None.

Critical Paths under _main in BANK3

    None.

Critical Paths under _INTERRUPT_InterruptManager in BANK3

    None.

Critical Paths under _main in BANK4

    None.

Critical Paths under _INTERRUPT_InterruptManager in BANK4

    None.

Critical Paths under _main in BANK5

    None.

Critical Paths under _INTERRUPT_InterruptManager in BANK5

    None.

Critical Paths under _main in BANK6

    None.

Critical Paths under _INTERRUPT_InterruptManager in BANK6

    None.

Critical Paths under _main in BANK7

    None.

Critical Paths under _INTERRUPT_InterruptManager in BANK7

    None.

Critical Paths under _main in BANK8

    None.

Critical Paths under _INTERRUPT_InterruptManager in BANK8

    None.

Critical Paths under _main in BANK9

    None.

Critical Paths under _INTERRUPT_InterruptManager in BANK9

    None.

Critical Paths under _main in BANK10

    None.

Critical Paths under _INTERRUPT_InterruptManager in BANK10

    None.

Critical Paths under _main in BANK11

    None.

Critical Paths under _INTERRUPT_InterruptManager in BANK11

    None.

Critical Paths under _main in BANK12

    None.

Critical Paths under _INTERRUPT_InterruptManager in BANK12

    None.

Critical Paths under _main in BANK13

    None.

Critical Paths under _INTERRUPT_InterruptManager in BANK13

    None.

Critical Paths under _main in BANK14

    None.

Critical Paths under _INTERRUPT_InterruptManager in BANK14

    None.

Critical Paths under _main in BANK15

    None.

Critical Paths under _INTERRUPT_InterruptManager in BANK15

    None.

Critical Paths under _main in BANK16

    None.

Critical Paths under _INTERRUPT_InterruptManager in BANK16

    None.

Critical Paths under _main in BANK17

    None.

Critical Paths under _INTERRUPT_InterruptManager in BANK17

    None.

Critical Paths under _main in BANK18

    None.

Critical Paths under _INTERRUPT_InterruptManager in BANK18

    None.

Critical Paths under _main in BANK19

    None.

Critical Paths under _INTERRUPT_InterruptManager in BANK19

    None.

Critical Paths under _main in BANK20

    None.

Critical Paths under _INTERRUPT_InterruptManager in BANK20

    None.

Critical Paths under _main in BANK21

    None.

Critical Paths under _INTERRUPT_InterruptManager in BANK21

    None.

Critical Paths under _main in BANK22

    None.

Critical Paths under _INTERRUPT_InterruptManager in BANK22

    None.

Critical Paths under _main in BANK23

    None.

Critical Paths under _INTERRUPT_InterruptManager in BANK23

    None.

Critical Paths under _main in BANK24

    None.

Critical Paths under _INTERRUPT_InterruptManager in BANK24

    None.

Critical Paths under _main in BANK25

    None.

Critical Paths under _INTERRUPT_InterruptManager in BANK25

    None.

Critical Paths under _main in BANK26

    None.

Critical Paths under _INTERRUPT_InterruptManager in BANK26

    None.

Critical Paths under _main in BANK27

    None.

Critical Paths under _INTERRUPT_InterruptManager in BANK27

    None.

Critical Paths under _main in BANK28

    None.

Critical Paths under _INTERRUPT_InterruptManager in BANK28

    None.

Critical Paths under _main in BANK29

    None.

Critical Paths under _INTERRUPT_InterruptManager in BANK29

    None.

Critical Paths under _main in BANK30

    None.

Critical Paths under _INTERRUPT_InterruptManager in BANK30

    None.

Critical Paths under _main in BANK31

    None.

Critical Paths under _INTERRUPT_InterruptManager in BANK31

    None.

Call Graph Tables:

 ---------------------------------------------------------------------------------
 (Depth) Function   	        Calls       Base Space   Used Autos Params    Refs
 ---------------------------------------------------------------------------------
 (0) _main                                                 3     3      0    8710
                                             90 COMRAM     3     3      0
           _ADCC_GetConversionResult
                    _ADCC_Initialize
              _ADCC_IsConversionDone
               _ADCC_StartConversion
               _INTERRUPT_Initialize
                  _SYSTEM_Initialize
                    _TMR0_Initialize
                    _TMR0_StartTimer
                             _printf
 ---------------------------------------------------------------------------------
 (1) _printf                                               8     4      4    8009
                                              0 BANK0      8     4      4
                           _vfprintf
 ---------------------------------------------------------------------------------
 (2) _vfprintf                                             8     2      6    7838
                                             82 COMRAM     8     2      6
                          _vfpfcnvrt
 ---------------------------------------------------------------------------------
 (3) _vfpfcnvrt                                           42    36      6    7365
                                             66 COMRAM    16    10      6
                               _dtoa
                              _fputc
 ---------------------------------------------------------------------------------
 (4) _dtoa                                                36    26     10    5621
                                             30 COMRAM    36    26     10
                            ___aodiv
                            ___aomod
                                _abs
                                _pad
 ---------------------------------------------------------------------------------
 (5) _pad                                                 11     5      6    3355
                                             19 COMRAM    11     5      6
                              _fputc
                              _fputs
                             _strlen
 ---------------------------------------------------------------------------------
 (6) _strlen                                               4     2      2     220
                                              1 COMRAM     4     2      2
 ---------------------------------------------------------------------------------
 (6) _fputs                                                7     3      4    1506
                                             12 COMRAM     7     3      4
                              _fputc
 ---------------------------------------------------------------------------------
 (4) _fputc                                                9     5      4    1006
                                              3 COMRAM     9     5      4
                              _putch
 ---------------------------------------------------------------------------------
 (5) _putch                                                1     1      0      62
                                              2 COMRAM     1     1      0
                        _UART1_Write
 ---------------------------------------------------------------------------------
 (6) _UART1_Write                                          1     1      0      31
                                              1 COMRAM     1     1      0
 ---------------------------------------------------------------------------------
 (5) _abs                                                  4     2      2     183
                                             19 COMRAM     4     2      2
                            ___aomod (ARG)
 ---------------------------------------------------------------------------------
 (5) ___aomod                                             18     2     16     613
                                              1 COMRAM    18     2     16
 ---------------------------------------------------------------------------------
 (5) ___aodiv                                             26    10     16     625
                                              1 COMRAM    26    10     16
 ---------------------------------------------------------------------------------
 (1) _TMR0_StartTimer                                      0     0      0       0
 ---------------------------------------------------------------------------------
 (1) _SYSTEM_Initialize                                    0     0      0     484
                    _ADCC_Initialize
               _INTERRUPT_Initialize
              _OSCILLATOR_Initialize
             _PIN_MANAGER_Initialize
                     _PMD_Initialize
                    _TMR0_Initialize
                   _UART1_Initialize
 ---------------------------------------------------------------------------------
 (2) _UART1_Initialize                                     0     0      0     363
              _UART1_SetErrorHandler
       _UART1_SetFramingErrorHandler
       _UART1_SetOverrunErrorHandler
 ---------------------------------------------------------------------------------
 (3) _UART1_SetOverrunErrorHandler                         3     0      3     121
                                              1 COMRAM     3     0      3
 ---------------------------------------------------------------------------------
 (3) _UART1_SetFramingErrorHandler                         3     0      3     121
                                              1 COMRAM     3     0      3
 ---------------------------------------------------------------------------------
 (3) _UART1_SetErrorHandler                                3     0      3     121
                                              1 COMRAM     3     0      3
 ---------------------------------------------------------------------------------
 (1) _TMR0_Initialize                                      0     0      0     121
           _TMR0_SetInterruptHandler
 ---------------------------------------------------------------------------------
 (2) _TMR0_SetInterruptHandler                             3     0      3     121
                                              1 COMRAM     3     0      3
 ---------------------------------------------------------------------------------
 (2) _PMD_Initialize                                       0     0      0       0
 ---------------------------------------------------------------------------------
 (2) _PIN_MANAGER_Initialize                               0     0      0       0
 ---------------------------------------------------------------------------------
 (2) _OSCILLATOR_Initialize                                0     0      0       0
 ---------------------------------------------------------------------------------
 (2) _INTERRUPT_Initialize                                 0     0      0       0
 ---------------------------------------------------------------------------------
 (2) _ADCC_Initialize                                      0     0      0       0
 ---------------------------------------------------------------------------------
 (1) _ADCC_StartConversion                                 1     1      0      31
                                              1 COMRAM     1     1      0
 ---------------------------------------------------------------------------------
 (1) _ADCC_IsConversionDone                                0     0      0       0
 ---------------------------------------------------------------------------------
 (1) _ADCC_GetConversionResult                             4     2      2       0
                                              1 COMRAM     4     2      2
 ---------------------------------------------------------------------------------
 Estimated maximum stack depth 6
 ---------------------------------------------------------------------------------
 (Depth) Function   	        Calls       Base Space   Used Autos Params    Refs
 ---------------------------------------------------------------------------------
 (10) _INTERRUPT_InterruptManager                          0     0      0       0
                           _TMR0_ISR
 ---------------------------------------------------------------------------------
 (11) _TMR0_ISR                                            1     1      0       0
                                              0 COMRAM     1     1      0
                   Absolute function *
       _TMR0_DefaultInterruptHandler *
 ---------------------------------------------------------------------------------
 (12) _TMR0_DefaultInterruptHandler                        0     0      0       0
 ---------------------------------------------------------------------------------
 (12) Absolute function(Fake)                              0     0      0       0
 ---------------------------------------------------------------------------------
 Estimated maximum stack depth 12
 ---------------------------------------------------------------------------------

 Call Graph Graphs:

 _main (ROOT)
   _ADCC_GetConversionResult
   _ADCC_Initialize
   _ADCC_IsConversionDone
   _ADCC_StartConversion
   _INTERRUPT_Initialize
   _SYSTEM_Initialize
     _ADCC_Initialize
     _INTERRUPT_Initialize
     _OSCILLATOR_Initialize
     _PIN_MANAGER_Initialize
     _PMD_Initialize
     _TMR0_Initialize
       _TMR0_SetInterruptHandler
     _UART1_Initialize
       _UART1_SetErrorHandler
       _UART1_SetFramingErrorHandler
       _UART1_SetOverrunErrorHandler
   _TMR0_Initialize
     _TMR0_SetInterruptHandler
   _TMR0_StartTimer
   _printf
     _vfprintf
       _vfpfcnvrt
         _dtoa
           ___aodiv
           ___aomod
           _abs
             ___aomod (ARG)
           _pad
             _fputc
               _putch
                 _UART1_Write
             _fputs
               _fputc
                 _putch
                   _UART1_Write
             _strlen
         _fputc
           _putch
             _UART1_Write

 _INTERRUPT_InterruptManager (ROOT)
   _TMR0_ISR
     Absolute function(Fake) *
     _TMR0_DefaultInterruptHandler *

 Address spaces:
Name               Size   Autos  Total    Cost      Usage
BIGRAM            1FFF      0       0      69        0.0%
EEDATA             400      0       0       0        0.0%
BITBANK31          100      0       0      67        0.0%
BANK31             100      0       0      68        0.0%
BITBANK30          100      0       0      65        0.0%
BANK30             100      0       0      66        0.0%
BITBANK29          100      0       0      63        0.0%
BANK29             100      0       0      64        0.0%
BITBANK28          100      0       0      61        0.0%
BANK28             100      0       0      62        0.0%
BITBANK27          100      0       0      59        0.0%
BANK27             100      0       0      60        0.0%
BITBANK26          100      0       0      56        0.0%
BANK26             100      0       0      57        0.0%
BITBANK25          100      0       0      54        0.0%
BANK25             100      0       0      55        0.0%
BITBANK24          100      0       0      52        0.0%
BANK24             100      0       0      53        0.0%
BITBANK23          100      0       0      50        0.0%
BANK23             100      0       0      51        0.0%
BITBANK22          100      0       0      48        0.0%
BANK22             100      0       0      49        0.0%
BITBANK21          100      0       0      46        0.0%
BANK21             100      0       0      47        0.0%
BITBANK20          100      0       0      44        0.0%
BANK20             100      0       0      45        0.0%
BITBANK19          100      0       0      42        0.0%
BANK19             100      0       0      43        0.0%
BITBANK18          100      0       0      40        0.0%
BANK18             100      0       0      41        0.0%
BITBANK17          100      0       0      38        0.0%
BANK17             100      0       0      39        0.0%
BITBANK16          100      0       0      36        0.0%
BANK16             100      0       0      37        0.0%
BITBANK15          100      0       0      34        0.0%
BANK15             100      0       0      35        0.0%
BITBANK14          100      0       0      32        0.0%
BANK14             100      0       0      33        0.0%
BITBANK13          100      0       0      30        0.0%
BANK13             100      0       0      31        0.0%
BITBANK12          100      0       0      28        0.0%
BANK12             100      0       0      29        0.0%
BITBANK11          100      0       0      26        0.0%
BANK11             100      0       0      27        0.0%
BITBANK10          100      0       0      24        0.0%
BANK10             100      0       0      25        0.0%
BITBANK9           100      0       0      22        0.0%
BANK9              100      0       0      23        0.0%
BITBANK8           100      0       0      20        0.0%
BANK8              100      0       0      21        0.0%
BITBANK7           100      0       0      18        0.0%
BANK7              100      0       0      19        0.0%
BITBANK6           100      0       0      16        0.0%
BANK6              100      0       0      17        0.0%
BITBANK5           100      0       0      14        0.0%
BANK5              100      0       0      15        0.0%
BITBANK4           100      0       0      12        0.0%
BANK4              100      0       0      13        0.0%
BITBANK3           100      0       0      10        0.0%
BANK3              100      0       0      11        0.0%
BITBANK2           100      0       0       8        0.0%
BANK2              100      0       0       9        0.0%
BITBANK1           100      0       0       6        0.0%
BANK1              100      0       0       7        0.0%
BITBANK0            A0      0       0       4        0.0%
BANK0               A0      8      3C       5       37.5%
BITCOMRAM           5F      0       0       0        0.0%
COMRAM              5F     5D      5E       1       98.9%
BITSFR_8             0      0       0     200        0.0%
SFR_8                0      0       0     200        0.0%
BITSFR_7             0      0       0     200        0.0%
SFR_7                0      0       0     200        0.0%
BITSFR_6             0      0       0     200        0.0%
SFR_6                0      0       0     200        0.0%
BITSFR_5             0      0       0     200        0.0%
SFR_5                0      0       0     200        0.0%
BITSFR_4             0      0       0     200        0.0%
SFR_4                0      0       0     200        0.0%
BITSFR_3             0      0       0     200        0.0%
SFR_3                0      0       0     200        0.0%
BITSFR_2             0      0       0     200        0.0%
SFR_2                0      0       0     200        0.0%
BITSFR_1             0      0       0     200        0.0%
SFR_1                0      0       0     200        0.0%
BITSFR               0      0       0     200        0.0%
SFR                  0      0       0     200        0.0%
STACK                0      0       0       2        0.0%
NULL                 0      0       0       0        0.0%
ABS                  0      0      9A      58        0.0%
DATA                 0      0      9A       3        0.0%
CODE                 0      0       0       0        0.0%


Microchip Technology PIC18 Macro Assembler V2.31 build 20201012212115 
Symbol Table                                                                                   Wed Oct 06 22:06:26 2021

                                          l63 2AE8                                            l92 2DB8  
                                          l89 2DA2                                            l98 2E4E  
                                         l110 2E28                                           l113 2E1A  
                                         l116 2E36                                           l205 29EA  
                                         l251 2D9E                                           l254 2DD0  
                                         l521 2E56                                           l257 2D3C  
                                         l507 2E44                                           l293 2A66  
                                         l382 2E0C                                           l296 2A6C  
                                         l385 2DE6                                           l379 2BAE  
                                         l388 2DFC                                           l485 2D18  
                                         l645 2694                                           l488 2E52  
                                         l658 27F8                                           _abs 2C50  
                                         _pad 27FA                       __size_of_PMD_Initialize 0024  
                                         tosl 003FFD                                           wreg 003FE8  
                                        ?_abs 0014                                          l1300 2954  
                                        l1241 28BE                                          l1209 2CF0  
                                        l1314 2CC8                                          l1308 2C4E  
                                        l2300 2CA0                                          l1236 2840  
                                        l2310 2520                                          l2302 2CBC  
                                        l1239 2882                                          l1247 20B6  
                                        l2320 2576                                          l2312 2540  
                                        l2400 2864                                          l1280 2B4A  
                                        l1249 20BE                                          l1281 2B52  
                                        l2330 25CA                                          l2322 2582  
                                        l2314 2544                                          l2306 250E  
                                        l2410 2C6A                                          l2402 2892  
                                        l1274 250C                                          l1267 22F8  
                                        l2340 263E                                          l2332 25DC  
                                        l2324 25A0                                          l2316 2552  
                                        l2308 2512                                          l2404 28A6  
                                        l2420 208E                                          l2412 2016  
                                        l2500 2446                                          l1285 2C86  
                                        l2334 260A                                          l2326 25A8  
                                        l2342 2644                                          l2318 2572  
                                        l2350 2696                                          l2270 2DB2  
                                        l2430 20E6                                          l2422 2090  
                                        l2414 2036                                          l2502 2476  
                                        l2510 24A8                                          l2600 2D9A  
                                        l2344 2654                                          l2336 262A  
                                        l2328 25BC                                          l2360 26DA  
                                        l2352 269A                                          l1288 2C8E  
                                        l2408 2C50                                          l2272 2E48  
                                        l2280 28EE                                          l2440 2184  
                                        l2432 20EC                                          l2424 20AA  
                                        l2416 205E                                          l2512 24BA  
                                        l2504 2488                                          l2610 2DD2  
                                        l2530 2AD4                                          l2602 2E50  
                                        l2346 2674                                          l2338 262C  
                                        l2370 2742                                          l2362 26FA  
                                        l2354 26A8                                          l2282 290C  
                                        l2274 28C0                                          l2290 2C18  
                                        l2450 222C                                          l2442 218A  
                                        l2434 20F4                                          l2426 20C6  
                                        l2418 207E                                          l2506 249C  
                                        l2604 2E00                                          l2540 297A  
                                        l2532 2AE4                                          l2524 2A76  
                                        l2380 27B8                                          l2372 2770  
                                        l2364 2718                                          l2356 26C8  
                                        l2268 2DA2                                          l2284 2942  
                                        l2276 28D2                                          l2292 2C2A  
                                        l2460 2292                                          l2452 2246  
                                        l2444 2190                                          l2436 20FC  
                                        l2428 20D8                                          l2516 24C6  
                                        l2620 2CD4                                          l2614 2DE8  
                                        l2606 2E06                                          l2550 29CE  
                                        l2542 2982                                          l2534 2956  
                                        l2526 2AB4                                          l2382 27D8  
                                        l2374 2790                                          l2366 2720  
                                        l2358 26CC                                          l2278 28E4  
                                        l2294 2C2E                                          l2390 281E  
                                        l2462 2298                                          l2470 22D0  
                                        l2454 2260                                          l2438 2102  
                                        l2446 21F4                                          l2518 24F6  
                                        l2630 29F8                                          l2608 2E0A  
                                        l2560 29DC                                          l2552 29D0  
                                        l2544 2988                                          l2536 2972  
                                        l2480 2E38                                          l2528 2AC4  
                                        l2376 27A2                                          l2368 2734  
                                        l2288 2C0C                                          l2296 2C90  
                                        l2392 282C                                          l2464 22AA  
                                        l2448 220E                                          l2456 2270  
                                        l2640 2A14                                          l2632 29FA  
                                        l2624 29EC                                          l2562 2E54  
                                        l2554 29D6                                          l2546 29CA  
                                        l2538 2978                                          l2570 2CF2  
                                        l2474 2E1C                                          l2378 27A8  
                                        l2298 2C9C                                          l2394 2838  
                                        l2386 27FA                                          l2466 22B6  
                                        l2458 2282                                          l2490 2352  
                                        l2482 22FA                                          l2618 2CCA  
                                        l2642 2A1A                                          l2634 29FE  
                                        l2626 29F0                                          l2556 29D8  
                                        l2548 29CC                                          l2564 2D1A  
                                        l2572 2CFE                                          l2476 2E0E  
                                        l2396 284C                                          l2388 280A  
                                        l2468 22BE                                          l2492 2382  
                                        l2484 232A                                          l2580 2AEA  
                                        l2644 2A2E                                          l2636 2A00  
                                        l2628 29F4                                          l2566 2DBA  
                                        l2558 29DA                                          l2574 2D02  
                                        l2478 2E2A                                          l2590 2D86  
                                        l2398 2860                                          l2494 23B2  
                                        l2486 233C                                          l2582 2AF2  
                                        l2646 2A3A                                          l2638 2A04  
                        _ADCC_StartConversion 2DFE                                          l2568 2B54  
                                        l2576 2D04                                          l2592 2D8A  
                                        l2496 240E                                          l2488 234E  
                                        l2584 2B00                                          l2648 2A50  
                                        l2578 2D14                                          l2594 2D8E  
                                        l2586 2B26                                          l2596 2D92  
                                        l2588 2D82                                          l2598 2D96  
                                        ?_pad 0014                                          STR_1 2001  
                                        u1300 2942                                          u1301 293E  
                                        u1310 2C4E                                          u1311 2C4A  
                                        u1400 26A8                                          u1320 2CBC  
                                        u1401 26A4                                          u1321 2CB8  
                                        u1330 2520                                          u1410 26DA  
                                        u1331 251C                                          u1411 26D6  
                                        u1340 2552                                          u1420 2718  
                                        u1500 2C6A                                          u1260 2DB2  
                                        u1341 254E                                          u1421 2714  
                                        u1501 2C66                                          u1261 2DAE  
                                        _LATA 003FBA                                          u1430 2742  
                                        u1270 28D2                                          u1510 2046  
                                        _LATB 003FBB                                          u1351 257C  
                                        u1431 273E                                          u1271 28CE  
                                        u1511 2040                                          _LATC 003FBC  
                                        u1360 25A0                                          u1440 2770  
                                        u1280 28E4                                          u1600 2246  
                                        u1520 2048                                          _LATD 003FBD  
                                        u1361 259C                                          u1441 276C  
                                        u1281 28E0                                          u1601 2242  
                                        _LATE 003FBE                                          u1370 25CA  
                                        u1450 27B8                                          u1290 290C  
                                        u1610 2260                                          u1530 205E  
                                        u1371 25C6                                          u1451 27B4  
                                        u1291 2908                                          u1611 225C  
                                        u1531 205A                                          u1380 260A  
                                        u1460 280A                                          u1620 2270  
                                        u1540 208E                                          u1700 2B4A  
                                        u1381 2606                                          u1461 2806  
                                        u1621 226C                                          u1541 208A  
                                        u1701 2B46                                          u1710 2DE4  
                                        u1390 2654                                          u1470 282C  
                                        u1630 2282                                          u1550 20AA  
                                        u1711 2DDE                                          u1391 2650  
                                        u1471 2828                                          u1631 227E  
                                        u1551 20A6                                          u1720 2DE6  
                                        u1480 2882                                          u1640 2292  
                                        u1560 20D8                                          u1481 287E  
                                        u1641 228E                                          u1561 20D4  
                                        u1490 2892                                          u1650 22AA  
                                        u1570 20E6                                          u1730 2A2E  
                                        u1491 288E                                          u1651 22A6  
                                        u1571 20E2                                          u1731 2A2A  
                                        u1580 220E                                          u1660 232A  
                                        u1740 2A66                                          u1581 220A  
                                        u1661 2326                                          u1741 2A62  
                                        u1590 222C                                          u1670 2382  
                                        u1591 2228                                          u1671 237E  
                                        u1680 23B2                                          u1681 23AE  
                                        u1690 2476                                          u1691 2472  
                                        u1757 2A0A                                          _PMD0 0039C0  
                                        _PMD1 0039C1                                          _PMD2 0039C2  
                                        _PMD3 0039C3                                          _PMD4 0039C4  
                                        _PMD5 0039C5                                          _PMD6 0039C6  
                                        _PMD7 0039C7                                          _WPUA 003A41  
                                        _WPUB 003A51                                          _WPUC 003A61  
                                        _WPUD 003A71                                          _WPUE 003A81  
                                        abs@a 0014                                          _dbuf 0068  
                                        _main 29EC                                          _dtoa 2016  
                                        _prec 0064                               _TMR0_StartTimer 2E50  
                                        _nout 0060                                          pad@i 001B  
                                        pad@p 0018                                          fsr1h 003FE2  
                                        fsr2h 003FDA                                          indf2 003FDF  
                                        fsr1l 003FE1                                          pad@w 001D  
                                        fsr2l 003FD9                                          start 001A  
                                ___param_bank 000000                                         ??_abs 0016  
                                       ??_pad 001A                       __end_of_TMR0_Initialize 2D1A  
              ??_TMR0_DefaultInterruptHandler 0001                __size_of_OSCILLATOR_Initialize 0018  
               __end_of_OSCILLATOR_Initialize 2DD2                               __end_of___aodiv 2696  
                                       _ADCAP 003EF5                                         _ADACT 003EFE  
                                       ?_main 0001                                         ?_dtoa 001F  
                                       _ADCLK 003EFF                               __end_of___aomod 27FA  
                                       _ADCNT 003EEB                                         _ADPCH 003EF1  
                                       _ADREF 003EFD                                         _ADRPT 003EEC  
                                       _U1P1H 003DED                                         _U1P2H 003DEF  
                                       _U1P1L 003DEC                                         _U1P3H 003DF1  
                                       _U1P2L 003DEE                                         _U1P3L 003DF0  
                                       _U1UIR 003DF8                                         _U1RXB 003DE8  
                                       _U1TXB 003DEA                                         i2l510 2E58  
                                       i2l504 2C0A                                         i2l528 2D60  
                                       _OSCEN 0039DD                                  vfpfcnvrt@fmt 0045  
                                       _TMR0H 003FB7                                         _TMR0L 003FB6  
                                       _TRISA 003FC2                                         _TRISB 003FC3  
                                       _TRISC 003FC4                                         _TRISD 003FC5  
                                       _TRISE 003FC6             __size_of_TMR0_SetInterruptHandler 000E  
                   ?_TMR0_SetInterruptHandler 0002                       ??_ADCC_IsConversionDone 0002  
                            __end_of_TMR0_ISR 2C0C                                         _flags 0066  
                       ?_ADCC_StartConversion 0001                                         _fputc 28C0  
                                       _fputs 2C0C                                         pad@fp 0014  
                                       _width 0062                                         _putch 2E46  
                                       dtoa@d 0021                                         dtoa@i 0041  
                                       dtoa@n 0039                                         dtoa@p 0033  
                                       dtoa@s 0037                                         dtoa@w 0035  
                                       pclath 003FFA                                         tablat 003FF5  
                                       status 003FD8              _UART1_DefaultFramingErrorHandler 000000  
                             __initialization 2D62                                  __end_of_main 2A76  
                                __end_of_dtoa 22FA                   ?_INTERRUPT_InterruptManager 0001  
                                ?_UART1_Write 0001                                        ??_main 005B  
                                      ??_dtoa 0029                                 __activetblptr 000003  
                            _UART1_Initialize 2A76                                        _ADACCH 003EE9  
                                      _ADACCL 003EE8                       __end_of_TMR0_StartTimer 2E54  
                                      _ADACCU 003EEA                                        _ADACQH 003EF4  
                                      _ADACQL 003EF3                                        _ADCON0 003EF8  
                                      _ADCON1 003EF9                                        _ADCON2 003EFA  
                                      _ADCON3 003EFB                                        _ADERRH 003EE3  
                                      _ADERRL 003EE2                                        ?_fputc 0004  
                                      _ADLTHH 003EDF                                        _ADLTHL 003EDE  
                                      ?_fputs 000D                                        _ADRESH 003EF0  
                                      _ADRESL 003EEF                                        _ADPREH 003EF7  
                                      _ADPREL 003EF6                                        _ADSTAT 003EFC  
                                      _ADUTHH 003EE1                                        _ADUTHL 003EE0  
                                      _ANSELA 003A40                                        ?_putch 0001  
                                      _ANSELB 003A50                                        _ANSELC 003A60  
                                      _ANSELD 003A70                                        _ANSELE 003A80  
                                      _T0CON0 003FB8                                        _T0CON1 003FB9  
                                      _RB1I2C 003A5A                                        _RB2I2C 003A5B  
                                      _RD0I2C 003A7A                                        _U1CON0 003DF2  
                                      _U1CON1 003DF3                                        _U1CON2 003DF4  
                                      _RC3I2C 003A6A                                        _RD1I2C 003A7B  
                                      _RC4I2C 003A6B                                        _U1BRGH 003DF6  
                                      _U1FIFO 003DF7                                        _U1BRGL 003DF5  
                                      _ODCONA 003A42                                        _ODCONB 003A52  
                                      _ODCONC 003A62                                        _RC6PPS 003A16  
                                      _ODCOND 003A72                                        _ODCONE 003A82  
                                      i2l2230 2BE4                                        i2l2224 2BB0  
                                      i2l2226 2BB4                                        i2l2228 2BCA  
                                      i2l2262 2D3E                                        i2l2264 2D4E  
                                      i2l2266 2D5C                                        _INLVLA 003A44  
                                      _INLVLB 003A54                                        _INLVLC 003A64  
                                      _INLVLD 003A74                                        _INLVLE 003A84  
                                      _OSCFRQ 0039DF                         _UART1_SetErrorHandler 2E2A  
                  ??_ADCC_GetConversionResult 0004                                  vfprintf@cfmt 0059  
                                   ??___aodiv 0012                                     ??___aomod 0012  
                            ?_TMR0_Initialize 0001                                        clear_0 2D68  
                                      _printf 2CCA                                        pad@buf 0016  
                                      dtoa@fp 001F                                        _strlen 2C90  
                             _ADCC_Initialize 2B54                                        fputc@c 0004  
                              _PMD_Initialize 2D1A                                        fputs@c 0011  
                                      fputs@i 0012                                        fputs@s 000D  
                                __mediumconst 0000                                        tblptrh 003FF7  
                                      tblptrl 003FF6                                        tblptru 003FF8  
                      ??_ADCC_StartConversion 0002                              __end_of_vfprintf 2B54  
    TMR0_SetInterruptHandler@InterruptHandler 0002          __end_of_UART1_SetOverrunErrorHandler 2E1C  
       __size_of_UART1_SetOverrunErrorHandler 000E                  _UART1_SetOverrunErrorHandler 2E0E  
                   _UART1_DefaultErrorHandler 000000                 __size_of_INTERRUPT_Initialize 0004  
                           _SYSTEM_Initialize 2D82                                    __accesstop 0060  
                     __end_of__initialization 2D7C                            ?_SYSTEM_Initialize 0001  
                               ___rparam_used 000001                                __pcstackCOMRAM 0001  
                         ??_SYSTEM_Initialize 0005                                     ?_TMR0_ISR 0001  
                               __end_of_fputc 2956                                 __end_of_fputs 2C50  
                               __end_of_putch 2E50                        __end_of_PMD_Initialize 2D3E  
                   _UART1_FramingErrorHandler 0091                   ADCC_StartConversion@channel 0002  
                            ?_TMR0_StartTimer 0001                                       ??_fputc 0008  
                   __end_of_SYSTEM_Initialize 2DA0                                       ??_fputs 0011  
                                     ??_putch 0003                                    __pbssBANK0 0060  
               ?_UART1_SetOverrunErrorHandler 0002                        ?_UART1_SetErrorHandler 0002  
                                     IVTBASEH 003FD6                                       IVTBASEL 003FD5  
                                     IVTBASEU 003FD7              __end_of_TMR0_SetInterruptHandler 2E46  
                                  ??_TMR0_ISR 0001                       __end_of_ADCC_Initialize 2BB0  
                                     _ADFLTRH 003EE7                                       _ADFLTRL 003EE6  
                                     _ADPREVH 003EEE                                       _ADPREVL 003EED  
                                     _ADSTPTH 003EE5                                       _ADSTPTL 003EE4  
                                     ?_printf 0094                               ?_PMD_Initialize 0001  
                                     ?_strlen 0002                                       _U1ERRIE 003DFA  
                                     _U1ERRIR 003DF9                          __size_of_UART1_Write 001A  
                                     _U1RXPPS 003AE5                                       _OSCCON1 0039D9  
                                     _OSCCON3 0039DB                            __size_of_vfpfcnvrt 0214  
                                     _OSCTUNE 0039DE                                       _SLRCONA 003A43  
                                     _SLRCONB 003A53                                       _SLRCONC 003A63  
                                     _SLRCOND 003A73                                       _SLRCONE 003A83  
              __size_of_ADCC_IsConversionDone 0016                 __end_of_ADCC_IsConversionDone 2DE8  
                                     __Hparam 0000                                       __Lparam 0000  
                    __end_of_UART1_Initialize 2AEA                                       ___aodiv 250E  
                                     ___aomod 2696                                     ?_vfprintf 0053  
                                __psmallconst 2000                                       __pcinit 2D62  
                                     __ramtop 2000                                       __ptext0 29EC  
                                     __ptext1 2CCA                                       __ptext2 2AEA  
                                     __ptext3 22FA                                       __ptext4 2016  
                                     __ptext5 27FA                                       __ptext6 2C90  
                                     __ptext7 2C0C                                       __ptext8 28C0  
                                     __ptext9 2E46                               __size_of_printf 0028  
                             __size_of_strlen 003A                         _OSCILLATOR_Initialize 2DBA  
                                __size_of_abs 0040                                  __size_of_pad 00C6  
                    ??_PIN_MANAGER_Initialize 0002                    __size_of_SYSTEM_Initialize 001E  
                        end_of_initialization 2D7C                                       fputc@fp 0006  
                                     fputs@fp 000F                ??_UART1_SetOverrunErrorHandler 0005  
                           __end_of_vfpfcnvrt 250E                                       postdec2 003FDD  
                                     postinc0 003FEE                                       postinc1 003FE6  
                                     postinc2 003FDE                              ?_ADCC_Initialize 0001  
                                  ??_vfprintf 0059                             UART1_Write@txData 0002  
                                     strlen@a 0004                                       strlen@s 0002  
                    _TMR0_SetInterruptHandler 2E38                  __end_of_INTERRUPT_Initialize 2E58  
                                 vfpfcnvrt@ap 0047                                   vfpfcnvrt@fp 0043  
                                 vfpfcnvrt@ll 004B                             __size_of_TMR0_ISR 005C  
                      ?_OSCILLATOR_Initialize 0001             __size_of_ADCC_GetConversionResult 0016  
                   ?_ADCC_GetConversionResult 0002                                __end_of_printf 2CF2  
                              __end_of_strlen 2CCA                           start_initialization 2D62  
                    __size_of_TMR0_Initialize 0028               __size_of_PIN_MANAGER_Initialize 0096  
                                 __end_of_abs 2C90                                   __end_of_pad 28C0  
                     ??_UART1_SetErrorHandler 0005                 __size_of_ADCC_StartConversion 0010  
                                 putch@txData 0003                                    ivt0x8_base 0008  
                                 vfprintf@fmt 0055                              ??_PMD_Initialize 0002  
                                    ??_printf 005B                                      ??_strlen 0004  
                          main@convertedValue 005C                                   __pbssCOMRAM 005E  
                          _UART1_ErrorHandler 008B                                 __pcstackBANK0 0094  
                            ___aodiv@dividend 0002                         _TMR0_InterruptHandler 0088  
                                   __pnvBANK0 0088                      __size_of_TMR0_StartTimer 0004  
                      _PIN_MANAGER_Initialize 2956                                     _dtoa$1626 0031  
                           ?_UART1_Initialize 0001          __end_of_UART1_SetFramingErrorHandler 2E2A  
       __size_of_UART1_SetFramingErrorHandler 000E                  _UART1_SetFramingErrorHandler 2E1C  
                                    ?___aodiv 0002                                      ?___aomod 0002  
                            ___aodiv@quotient 0014                            ??_UART1_Initialize 0005  
                            _uart1RxLastError 005E                                 ??_UART1_Write 0002  
                ??_INTERRUPT_InterruptManager 0002                             __size_of_vfprintf 006A  
                                 __smallconst 2000              _UART1_DefaultOverrunErrorHandler 000000  
                              __size_of_fputc 0096                                __size_of_fputs 0044  
                                 _U1ERRIRbits 003DF9                                __size_of_putch 000A  
                        _INTERRUPT_Initialize 2E54                         _ADCC_IsConversionDone 2DD2  
                           ??_TMR0_Initialize 0005                                      _LATAbits 003FBA  
       UART1_SetErrorHandler@interruptHandler 0002                                      _PIE3bits 003993  
                                    i2u121_40 2BF4                                      i2u120_48 2BD0  
                                    i2u121_41 2BEE                                      i2u120_49 2BE4  
                                    i2u121_46 2BF6                                      i2u124_40 2D4E  
                                    i2u124_41 2D4A                                      i2u125_40 2D5C  
                                    i2u125_41 2D58                                      i2u119_40 2BCA  
                                    i2u119_41 2BC6           __size_of_INTERRUPT_InterruptManager 0024  
                  ??_TMR0_SetInterruptHandler 0005                                      _PIR3bits 0039A3  
                                    _TMR0_ISR 2BB0                 ?_UART1_SetFramingErrorHandler 0002  
                                   _vfpfcnvrt 22FA                                    _ADCON0bits 003EF8  
                                  _ADCON1bits 003EF9                                    _ADCON2bits 003EFA  
                                  _ADCON3bits 003EFB                           __end_of_UART1_Write 2DBA  
                                 _INTCON0bits 003FD2                         ?_INTERRUPT_Initialize 0001  
                                  _ADSTATbits 003EFC                                      __Hrparam 0000  
            __end_of_ADCC_GetConversionResult 2DFE                                    vfprintf@ap 0057  
                                    __Lrparam 0000                                    vfprintf@fp 0053  
                     ??_OSCILLATOR_Initialize 0002                             ??_TMR0_StartTimer 0002  
                            __size_of___aodiv 0188                              __size_of___aomod 0164  
                                  ?_vfpfcnvrt 0043                               ___aodiv@divisor 000A  
                             ___aodiv@counter 0012                                    _T0CON0bits 003FB8  
                    __size_of_ADCC_Initialize 005C                                      __pivt0x8 0008  
                                    __ptext10 2DA0                                      __ptext11 2C50  
                                    __ptext20 2CF2                                      __ptext12 2696  
                                    __ptext21 2E38                                      __ptext13 250E  
                                    __ptext30 2D3E                                      __ptext22 2D1A  
                                    __ptext14 2E50                                      __ptext31 2BB0  
                                    __ptext23 2956                                      __ptext15 2D82  
                                    __ptext32 2E58                                      __ptext24 2DBA  
                                    __ptext16 2A76                                      __ptext33 0000  
                                    __ptext25 2E54                                      __ptext17 2E0E  
                                    __ptext26 2B54                                      __ptext18 2E1C  
                                    __ptext27 2DFE                                      __ptext19 2E2A  
                                    __ptext28 2DD2                                      __ptext29 2DE8  
                                  _U1CON0bits 003DF2                        ?_ADCC_IsConversionDone 0001  
              __size_of_UART1_SetErrorHandler 000E                 __end_of_UART1_SetErrorHandler 2E38  
                               __size_of_main 008A                                 __size_of_dtoa 02E4  
        __end_of_TMR0_DefaultInterruptHandler 2E5A         __size_of_TMR0_DefaultInterruptHandler 0002  
                _TMR0_DefaultInterruptHandler 2E58                     _UART1_OverrunErrorHandler 008E  
UART1_SetOverrunErrorHandler@interruptHandler 0002                  __end_of_ADCC_StartConversion 2E0E  
                                    _vfprintf 2AEA            __end_of_INTERRUPT_InterruptManager 2D62  
                  _INTERRUPT_InterruptManager 2D3E                                     printf@fmt 0094  
                                 _UART1_Write 2DA0                              ___aomod@dividend 0002  
              ??_UART1_SetFramingErrorHandler 0005                        ??_INTERRUPT_Initialize 0002  
                                    intlevel2 0000                       ?_PIN_MANAGER_Initialize 0001  
             fp__TMR0_DefaultInterruptHandler 0000                 ?_TMR0_DefaultInterruptHandler 0001  
                                    printf@ap 009A  UART1_SetFramingErrorHandler@interruptHandler 0002  
                    _ADCC_GetConversionResult 2DE8                               ___aomod@divisor 000A  
                                 ??_vfpfcnvrt 0049                               ___aomod@counter 0012  
                             _TMR0_Initialize 2CF2                     __size_of_UART1_Initialize 0074  
                                ___aodiv@sign 0013                __end_of_PIN_MANAGER_Initialize 29EC  
                           ??_ADCC_Initialize 0002                                  ___aomod@sign 0013  
